(dp1
S'output'
p2
S"<type 'exceptions.SyntaxError'> invalid syntax (contact.html, line 2)"
p3
sS'layer'
p4
S'/media/Windows/Users/Tushar/Education/IIIT/3rd_Year/2nd Sem/BTP/Project/web2py/applications/whiteboard/views/default/contact.html'
p5
sS'code'
p6
S'response.files.append(URL(\'static\',"css/contact.css")\nresponse.write(\'\\n\', escape=False)\nresponse.write(\'<!DOCTYPE html>\\n<!-- paulirish.com/2008/conditional-stylesheets-vs-css-hacks-answer-neither/ -->\\n<!--[if lt IE 7]><html class="ie ie6 ie-lte9 ie-lte8 ie-lte7 no-js" lang="\', escape=False)\nresponse.write(T.accepted_language or \'en\')\nresponse.write(\'"> <![endif]-->\\n<!--[if IE 7]><html class="ie ie7 ie-lte9 ie-lte8 ie-lte7 no-js" lang="\', escape=False)\nresponse.write(T.accepted_language or \'en\')\nresponse.write(\'"> <![endif]-->\\n<!--[if IE 8]><html class="ie ie8 ie-lte9 ie-lte8 no-js" lang="\', escape=False)\nresponse.write(T.accepted_language or \'en\')\nresponse.write(\'"> <![endif]-->\\n<!--[if IE 9]><html class="ie9 ie-lte9 no-js" lang="\', escape=False)\nresponse.write(T.accepted_language or \'en\')\nresponse.write(\'"> <![endif]-->\\n<!--[if (gt IE 9)|!(IE)]><!--> <html lang="\', escape=False)\nresponse.write(T.accepted_language or \'en\')\nresponse.write(\'"> <!--<![endif]-->\\n<head>\\n    <meta charset="utf-8" />\\n    <!--[if IE]>\\n        <meta http-equiv="X-UA-Compatible" content="IE=edge\', escape=False)\nresponse.write(not request.is_local and \',chrome=1\' or \'\')\nresponse.write(\'">\\n    <![endif]-->\\n    <title>\', escape=False)\nresponse.write(response.title or request.application)\nresponse.write(\'</title>\\n    <meta name="application-name" content="\', escape=False)\nresponse.write(request.application)\nresponse.write(\'" />\\n    <meta name="viewport" content="width=device-width, initial-scale=1.0, user-scalable=yes">\\n    <link rel="shortcut icon" href="\', escape=False)\nresponse.write(URL(\'static\',\'favicon.ico\'))\nresponse.write(\'" type="image/x-icon">\\n    <link rel="apple-touch-icon" href="\', escape=False)\nresponse.write(URL(\'static\',\'favicon.png\'))\nresponse.write(\'">\\n\\n    <link rel="stylesheet" href="\', escape=False)\nresponse.write(URL(\'static\',\'css/layout.css\'))\nresponse.write(\'" />\\n    <link rel="stylesheet" type="text/css" href="http://fonts.googleapis.com/css?family=Lobster" />\\n\\n    <script type="text/javascript" src="\', escape=False)\nresponse.write(URL(\'static\',\'js/jquery.js\'))\nresponse.write(\'"></script>\\n    <!--[if lt IE 9]>\\n        <script src="http://html5shiv.googlecode.com/svn/trunk/html5.js"></script>\\n    <![endif]-->\\n    \', escape=False)\nresponse.write(\'<script type="text/javascript"><!--\\n    // These variables are used by the web2py_ajax_init function in web2py_ajax.js (which is loaded below).\\n    var w2p_ajax_confirm_message = "\', escape=False)\nresponse.write(T(\'Are you sure you want to delete this object?\'))\nresponse.write(\'";\\n    var w2p_ajax_date_format = "\', escape=False)\nresponse.write(T(\'%Y-%m-%d\'))\nresponse.write(\'";\\n    var w2p_ajax_datetime_format = "\', escape=False)\nresponse.write(T(\'%Y-%m-%d %H:%M:%S\'))\nresponse.write(\'";\\n    //--></script>\\n\', escape=False)\nresponse.files.append(URL(\'static\',\'js/web2py.js\'))\nresponse.include_meta()\nresponse.include_files()\nresponse.write(\'\\n\', escape=False)\nresponse.write(\'\\n</head>\\n<body>\\n    <div class="flash">\', escape=False)\nresponse.write(response.flash or \'\')\nresponse.write(\'</div>\\n    <center>\\n    <nav>\\n        <ul class="fancyNav">\\n            <li id="home" \', escape=False)\nif request.function==\'index\':\n    response.write(\'class="active_tab"\', escape=False)\n    pass\nresponse.write(\'><a href="\', escape=False)\nresponse.write(URL(\'index\'))\nresponse.write(\'" class="homeIcon">Home</a></li>\\n            <li id="new" \', escape=False)\nif request.function==\'new\':\n    response.write(\'class="active_tab"\', escape=False)\n    pass\nresponse.write(\'><a href="\', escape=False)\nresponse.write(URL(\'new\'))\nresponse.write(\'">New Drawing</a></li>\\n            <li id="collection" \', escape=False)\nif request.function==\'collections\':\n    response.write(\'class="active_tab"\', escape=False)\n    pass\nresponse.write(\'><a href="\', escape=False)\nresponse.write(URL(\'collections\'))\nresponse.write(\'">My Collections</a></li>\\n            \', escape=False)\nif not auth.user:\n    response.write(\'\\n            <li id="login" \', escape=False)\n    if request.function==\'user\' and request.args(0)==\'login\':\n        response.write(\'class="active_tab"\', escape=False)\n        pass\n    response.write(\'><a href="\', escape=False)\n    response.write(URL(\'user\',args=\'login\'))\n    response.write(\'">Login</a></li>\\n            <li id="register" \', escape=False)\n    if request.function==\'user\' and request.args(0)==\'register\':\n        response.write(\'class="active_tab"\', escape=False)\n        pass\n    response.write(\'><a href="\', escape=False)\n    response.write(URL(\'user\',args=\'register\'))\n    response.write(\'">Register</a></li>\\n            \', escape=False)\nelse:\n    response.write(\'\\n            <li id="logout"><a href="\', escape=False)\n    response.write(URL(\'user\',args=\'logout\'))\n    response.write(\'">Logout</a></li>\\n            <li id="profile" \', escape=False)\n    if request.function==\'user\' and (request.args(0)==\'profile\' or request.args(0)==\'change_password\'):\n        response.write(\'class="active_tab"\', escape=False)\n        pass\n    response.write(\'><a href="\', escape=False)\n    response.write(URL(\'user\',args=\'profile\'))\n    response.write(\'">Profile</a></li>\\n            \', escape=False)\n    pass\nresponse.write(\'\\n            <li id="contact" \', escape=False)\nif request.function==\'contact\':\n    response.write(\'class="active_tab"\', escape=False)\n    pass\nresponse.write(\'><a href="\', escape=False)\nresponse.write(URL(\'contact\'))\nresponse.write(\'">Contact us</a></li>\\n        </ul>\\n    </nav>\\n    </center>\\n    <div id="wrapper">\\n        <aside id="message"></aside>\\n        \', escape=False)\nresponse.write(\'\\n\', escape=False)\nresponse.write(\'\\n    </div>\\n</body>\\n</html>\\n\', escape=False)'
p7
sS'snapshot'
p8
(dp9
S'exception'
p10
(dp11
S'__getslice__'
p12
S"<method-wrapper '__getslice__' of exceptions.SyntaxError object>"
p13
sS'text'
p14
S'"response.write(\'\\\\n\', escape=False)\\n"'
p15
sS'__str__'
p16
S"<method-wrapper '__str__' of exceptions.SyntaxError object>"
p17
sS'__reduce__'
p18
S'<built-in method __reduce__ of exceptions.SyntaxError object>'
p19
sS'__dict__'
p20
S'{}'
p21
sS'__sizeof__'
p22
S'<built-in method __sizeof__ of exceptions.SyntaxError object>'
p23
sS'__init__'
p24
S"<method-wrapper '__init__' of exceptions.SyntaxError object>"
p25
sS'__setattr__'
p26
S"<method-wrapper '__setattr__' of exceptions.SyntaxError object>"
p27
sS'__reduce_ex__'
p28
S'<built-in method __reduce_ex__ of exceptions.SyntaxError object>'
p29
sS'__new__'
p30
S'<built-in method __new__ of type object>'
p31
sS'__format__'
p32
S'<built-in method __format__ of exceptions.SyntaxError object>'
p33
sS'__class__'
p34
S"<type 'exceptions.SyntaxError'>"
p35
sS'filename'
p36
S"'/media/Windows/Users/Tushar/Education/IIIT/3rd_Y...pplications/whiteboard/views/default/contact.html'"
p37
sS'lineno'
p38
S'2'
sS'msg'
p39
S"'invalid syntax'"
p40
sS'__doc__'
p41
S"'Invalid syntax.'"
p42
sS'__getitem__'
p43
S"<method-wrapper '__getitem__' of exceptions.SyntaxError object>"
p44
sS'__setstate__'
p45
S'<built-in method __setstate__ of exceptions.SyntaxError object>'
p46
sS'__getattribute__'
p47
S"<method-wrapper '__getattribute__' of exceptions.SyntaxError object>"
p48
sS'print_file_and_line'
p49
S'None'
p50
sS'args'
p51
S'(\'invalid syntax\', (\'/media/Windows/Users/Tushar/Education/IIIT/3rd_Y...pplications/whiteboard/views/default/contact.html\', 2, 8, "response.write(\'\\\\n\', escape=False)\\n"))'
p52
sS'__subclasshook__'
p53
S'<built-in method __subclasshook__ of type object>'
p54
sS'offset'
p55
S'8'
sS'__unicode__'
p56
S'<built-in method __unicode__ of exceptions.SyntaxError object>'
p57
sS'__delattr__'
p58
S"<method-wrapper '__delattr__' of exceptions.SyntaxError object>"
p59
sS'__repr__'
p60
S"<method-wrapper '__repr__' of exceptions.SyntaxError object>"
p61
sS'__hash__'
p62
S"<method-wrapper '__hash__' of exceptions.SyntaxError object>"
p63
ssS'evalue'
p64
S'invalid syntax (contact.html, line 2)'
p65
sS'request'
p66
ccopy_reg
_reconstructor
p67
(cgluon.html
BEAUTIFY
p68
c__builtin__
object
p69
NtRp70
(dp71
S'attributes'
p72
(dp73
sS'components'
p74
(lp75
g67
(cgluon.html
TABLE
p76
g69
NtRp77
(dp78
g72
(dp79
S'level'
p80
I5
ssS'parent'
p81
Nsg74
(lp82
g67
(cgluon.html
TR
p83
g69
NtRp84
(dp85
g72
(dp86
sg81
g77
sg74
(lp87
g67
(cgluon.html
TD
p88
g69
NtRp89
(dp90
g72
(dp91
S'_style'
p92
S'font-weight:bold;vertical-align:top'
p93
ssg81
g84
sg74
(lp94
S'ajax'
p95
asbag67
(g88
g69
NtRp96
(dp97
g72
(dp98
S'_valign'
p99
S'top'
p100
ssg81
g84
sg74
(lp101
S':'
asbag67
(g88
g69
NtRp102
(dp103
g72
(dp104
sg81
g84
sg74
(lp105
g67
(g68
g69
NtRp106
(dp107
g72
(dp108
g80
I5
ssg81
g102
sg74
(lp109
S'False'
p110
asbasbasbag67
(g83
g69
NtRp111
(dp112
g72
(dp113
sg81
g77
sg74
(lp114
g67
(g88
g69
NtRp115
(dp116
g72
(dp117
g92
g93
ssg81
g111
sg74
(lp118
S'application'
p119
asbag67
(g88
g69
NtRp120
(dp121
g72
(dp122
g99
g100
ssg81
g111
sg74
(lp123
S':'
asbag67
(g88
g69
NtRp124
(dp125
g72
(dp126
sg81
g111
sg74
(lp127
g67
(g68
g69
NtRp128
(dp129
g72
(dp130
g80
I5
ssg81
g124
sg74
(lp131
S'whiteboard'
p132
asbasbasbag67
(g83
g69
NtRp133
(dp134
g72
(dp135
sg81
g77
sg74
(lp136
g67
(g88
g69
NtRp137
(dp138
g72
(dp139
g92
g93
ssg81
g133
sg74
(lp140
g51
asbag67
(g88
g69
NtRp141
(dp142
g72
(dp143
g99
g100
ssg81
g133
sg74
(lp144
S':'
asbag67
(g88
g69
NtRp145
(dp146
g72
(dp147
sg81
g133
sg74
(lp148
g67
(g68
g69
NtRp149
(dp150
g72
(dp151
g80
I5
ssg81
g145
sg74
(lp152
g67
(g76
g69
NtRp153
(dp154
g72
(dp155
g80
I4
ssg81
Nsg74
(lp156
sbasbasbasbag67
(g83
g69
NtRp157
(dp158
g72
(dp159
sg81
g77
sg74
(lp160
g67
(g88
g69
NtRp161
(dp162
g72
(dp163
g92
g93
ssg81
g157
sg74
(lp164
S'body'
p165
asbag67
(g88
g69
NtRp166
(dp167
g72
(dp168
g99
g100
ssg81
g157
sg74
(lp169
S':'
asbag67
(g88
g69
NtRp170
(dp171
g72
(dp172
sg81
g157
sg74
(lp173
g67
(g68
g69
NtRp174
(dp175
g72
(dp176
g80
I5
ssg81
g170
sg74
(lp177
S'<cStringIO.StringO object at 0x8f7f160>'
p178
asbasbasbag67
(g83
g69
NtRp179
(dp180
g72
(dp181
sg81
g77
sg74
(lp182
g67
(g88
g69
NtRp183
(dp184
g72
(dp185
g92
g93
ssg81
g179
sg74
(lp186
S'client'
p187
asbag67
(g88
g69
NtRp188
(dp189
g72
(dp190
g99
g100
ssg81
g179
sg74
(lp191
S':'
asbag67
(g88
g69
NtRp192
(dp193
g72
(dp194
sg81
g179
sg74
(lp195
g67
(g68
g69
NtRp196
(dp197
g72
(dp198
g80
I5
ssg81
g192
sg74
(lp199
S'10.1.36.150'
p200
asbasbasbag67
(g83
g69
NtRp201
(dp202
g72
(dp203
sg81
g77
sg74
(lp204
g67
(g88
g69
NtRp205
(dp206
g72
(dp207
g92
g93
ssg81
g201
sg74
(lp208
S'controller'
p209
asbag67
(g88
g69
NtRp210
(dp211
g72
(dp212
g99
g100
ssg81
g201
sg74
(lp213
S':'
asbag67
(g88
g69
NtRp214
(dp215
g72
(dp216
sg81
g201
sg74
(lp217
g67
(g68
g69
NtRp218
(dp219
g72
(dp220
g80
I5
ssg81
g214
sg74
(lp221
S'default'
p222
asbasbasbag67
(g83
g69
NtRp223
(dp224
g72
(dp225
sg81
g77
sg74
(lp226
g67
(g88
g69
NtRp227
(dp228
g72
(dp229
g92
g93
ssg81
g223
sg74
(lp230
S'cookies'
p231
asbag67
(g88
g69
NtRp232
(dp233
g72
(dp234
g99
g100
ssg81
g223
sg74
(lp235
S':'
asbag67
(g88
g69
NtRp236
(dp237
g72
(dp238
sg81
g223
sg74
(lp239
g67
(g68
g69
NtRp240
(dp241
g72
(dp242
g80
I5
ssg81
g236
sg74
(lp243
g67
(g76
g69
NtRp244
(dp245
g72
(dp246
g80
I4
ssg81
Nsg74
(lp247
g67
(g83
g69
NtRp248
(dp249
g72
(dp250
sg81
g244
sg74
(lp251
g67
(g88
g69
NtRp252
(dp253
g72
(dp254
g92
g93
ssg81
g248
sg74
(lp255
S'session_id_admin'
p256
asbag67
(g88
g69
NtRp257
(dp258
g72
(dp259
g99
g100
ssg81
g248
sg74
(lp260
S':'
asbag67
(g88
g69
NtRp261
(dp262
g72
(dp263
sg81
g248
sg74
(lp264
g67
(g68
g69
NtRp265
(dp266
g72
(dp267
g80
I4
ssg81
g261
sg74
(lp268
g67
(g76
g69
NtRp269
(dp270
g72
(dp271
g80
I3
ssg81
Nsg74
(lp272
g67
(g83
g69
NtRp273
(dp274
g72
(dp275
sg81
g269
sg74
(lp276
g67
(g88
g69
NtRp277
(dp278
g72
(dp279
g92
g93
ssg81
g273
sg74
(lp280
S'comment'
p281
asbag67
(g88
g69
NtRp282
(dp283
g72
(dp284
g99
g100
ssg81
g273
sg74
(lp285
S':'
asbag67
(g88
g69
NtRp286
(dp287
g72
(dp288
sg81
g273
sg74
(lp289
g67
(g68
g69
NtRp290
(dp291
g72
(dp292
g80
I3
ssg81
g286
sg74
(lp293
S''
asbasbasbag67
(g83
g69
NtRp294
(dp295
g72
(dp296
sg81
g269
sg74
(lp297
g67
(g88
g69
NtRp298
(dp299
g72
(dp300
g92
g93
ssg81
g294
sg74
(lp301
S'domain'
p302
asbag67
(g88
g69
NtRp303
(dp304
g72
(dp305
g99
g100
ssg81
g294
sg74
(lp306
S':'
asbag67
(g88
g69
NtRp307
(dp308
g72
(dp309
sg81
g294
sg74
(lp310
g67
(g68
g69
NtRp311
(dp312
g72
(dp313
g80
I3
ssg81
g307
sg74
(lp314
S''
asbasbasbag67
(g83
g69
NtRp315
(dp316
g72
(dp317
sg81
g269
sg74
(lp318
g67
(g88
g69
NtRp319
(dp320
g72
(dp321
g92
g93
ssg81
g315
sg74
(lp322
S'expires'
p323
asbag67
(g88
g69
NtRp324
(dp325
g72
(dp326
g99
g100
ssg81
g315
sg74
(lp327
S':'
asbag67
(g88
g69
NtRp328
(dp329
g72
(dp330
sg81
g315
sg74
(lp331
g67
(g68
g69
NtRp332
(dp333
g72
(dp334
g80
I3
ssg81
g328
sg74
(lp335
S''
asbasbasbag67
(g83
g69
NtRp336
(dp337
g72
(dp338
sg81
g269
sg74
(lp339
g67
(g88
g69
NtRp340
(dp341
g72
(dp342
g92
g93
ssg81
g336
sg74
(lp343
S'httponly'
p344
asbag67
(g88
g69
NtRp345
(dp346
g72
(dp347
g99
g100
ssg81
g336
sg74
(lp348
S':'
asbag67
(g88
g69
NtRp349
(dp350
g72
(dp351
sg81
g336
sg74
(lp352
g67
(g68
g69
NtRp353
(dp354
g72
(dp355
g80
I3
ssg81
g349
sg74
(lp356
S''
asbasbasbag67
(g83
g69
NtRp357
(dp358
g72
(dp359
sg81
g269
sg74
(lp360
g67
(g88
g69
NtRp361
(dp362
g72
(dp363
g92
g93
ssg81
g357
sg74
(lp364
S'max-age'
p365
asbag67
(g88
g69
NtRp366
(dp367
g72
(dp368
g99
g100
ssg81
g357
sg74
(lp369
S':'
asbag67
(g88
g69
NtRp370
(dp371
g72
(dp372
sg81
g357
sg74
(lp373
g67
(g68
g69
NtRp374
(dp375
g72
(dp376
g80
I3
ssg81
g370
sg74
(lp377
S''
asbasbasbag67
(g83
g69
NtRp378
(dp379
g72
(dp380
sg81
g269
sg74
(lp381
g67
(g88
g69
NtRp382
(dp383
g72
(dp384
g92
g93
ssg81
g378
sg74
(lp385
S'path'
p386
asbag67
(g88
g69
NtRp387
(dp388
g72
(dp389
g99
g100
ssg81
g378
sg74
(lp390
S':'
asbag67
(g88
g69
NtRp391
(dp392
g72
(dp393
sg81
g378
sg74
(lp394
g67
(g68
g69
NtRp395
(dp396
g72
(dp397
g80
I3
ssg81
g391
sg74
(lp398
S''
asbasbasbag67
(g83
g69
NtRp399
(dp400
g72
(dp401
sg81
g269
sg74
(lp402
g67
(g88
g69
NtRp403
(dp404
g72
(dp405
g92
g93
ssg81
g399
sg74
(lp406
S'secure'
p407
asbag67
(g88
g69
NtRp408
(dp409
g72
(dp410
g99
g100
ssg81
g399
sg74
(lp411
S':'
asbag67
(g88
g69
NtRp412
(dp413
g72
(dp414
sg81
g399
sg74
(lp415
g67
(g68
g69
NtRp416
(dp417
g72
(dp418
g80
I3
ssg81
g412
sg74
(lp419
S''
asbasbasbag67
(g83
g69
NtRp420
(dp421
g72
(dp422
sg81
g269
sg74
(lp423
g67
(g88
g69
NtRp424
(dp425
g72
(dp426
g92
g93
ssg81
g420
sg74
(lp427
S'version'
p428
asbag67
(g88
g69
NtRp429
(dp430
g72
(dp431
g99
g100
ssg81
g420
sg74
(lp432
S':'
asbag67
(g88
g69
NtRp433
(dp434
g72
(dp435
sg81
g420
sg74
(lp436
g67
(g68
g69
NtRp437
(dp438
g72
(dp439
g80
I3
ssg81
g433
sg74
(lp440
S''
asbasbasbasbasbasbasbag67
(g83
g69
NtRp441
(dp442
g72
(dp443
sg81
g244
sg74
(lp444
g67
(g88
g69
NtRp445
(dp446
g72
(dp447
g92
g93
ssg81
g441
sg74
(lp448
S'session_id_welcome'
p449
asbag67
(g88
g69
NtRp450
(dp451
g72
(dp452
g99
g100
ssg81
g441
sg74
(lp453
S':'
asbag67
(g88
g69
NtRp454
(dp455
g72
(dp456
sg81
g441
sg74
(lp457
g67
(g68
g69
NtRp458
(dp459
g72
(dp460
g80
I4
ssg81
g454
sg74
(lp461
g67
(g76
g69
NtRp462
(dp463
g72
(dp464
g80
I3
ssg81
Nsg74
(lp465
g67
(g83
g69
NtRp466
(dp467
g72
(dp468
sg81
g462
sg74
(lp469
g67
(g88
g69
NtRp470
(dp471
g72
(dp472
g92
g93
ssg81
g466
sg74
(lp473
g281
asbag67
(g88
g69
NtRp474
(dp475
g72
(dp476
g99
g100
ssg81
g466
sg74
(lp477
S':'
asbag67
(g88
g69
NtRp478
(dp479
g72
(dp480
sg81
g466
sg74
(lp481
g67
(g68
g69
NtRp482
(dp483
g72
(dp484
g80
I3
ssg81
g478
sg74
(lp485
S''
asbasbasbag67
(g83
g69
NtRp486
(dp487
g72
(dp488
sg81
g462
sg74
(lp489
g67
(g88
g69
NtRp490
(dp491
g72
(dp492
g92
g93
ssg81
g486
sg74
(lp493
g302
asbag67
(g88
g69
NtRp494
(dp495
g72
(dp496
g99
g100
ssg81
g486
sg74
(lp497
S':'
asbag67
(g88
g69
NtRp498
(dp499
g72
(dp500
sg81
g486
sg74
(lp501
g67
(g68
g69
NtRp502
(dp503
g72
(dp504
g80
I3
ssg81
g498
sg74
(lp505
S''
asbasbasbag67
(g83
g69
NtRp506
(dp507
g72
(dp508
sg81
g462
sg74
(lp509
g67
(g88
g69
NtRp510
(dp511
g72
(dp512
g92
g93
ssg81
g506
sg74
(lp513
g323
asbag67
(g88
g69
NtRp514
(dp515
g72
(dp516
g99
g100
ssg81
g506
sg74
(lp517
S':'
asbag67
(g88
g69
NtRp518
(dp519
g72
(dp520
sg81
g506
sg74
(lp521
g67
(g68
g69
NtRp522
(dp523
g72
(dp524
g80
I3
ssg81
g518
sg74
(lp525
S''
asbasbasbag67
(g83
g69
NtRp526
(dp527
g72
(dp528
sg81
g462
sg74
(lp529
g67
(g88
g69
NtRp530
(dp531
g72
(dp532
g92
g93
ssg81
g526
sg74
(lp533
g344
asbag67
(g88
g69
NtRp534
(dp535
g72
(dp536
g99
g100
ssg81
g526
sg74
(lp537
S':'
asbag67
(g88
g69
NtRp538
(dp539
g72
(dp540
sg81
g526
sg74
(lp541
g67
(g68
g69
NtRp542
(dp543
g72
(dp544
g80
I3
ssg81
g538
sg74
(lp545
S''
asbasbasbag67
(g83
g69
NtRp546
(dp547
g72
(dp548
sg81
g462
sg74
(lp549
g67
(g88
g69
NtRp550
(dp551
g72
(dp552
g92
g93
ssg81
g546
sg74
(lp553
g365
asbag67
(g88
g69
NtRp554
(dp555
g72
(dp556
g99
g100
ssg81
g546
sg74
(lp557
S':'
asbag67
(g88
g69
NtRp558
(dp559
g72
(dp560
sg81
g546
sg74
(lp561
g67
(g68
g69
NtRp562
(dp563
g72
(dp564
g80
I3
ssg81
g558
sg74
(lp565
S''
asbasbasbag67
(g83
g69
NtRp566
(dp567
g72
(dp568
sg81
g462
sg74
(lp569
g67
(g88
g69
NtRp570
(dp571
g72
(dp572
g92
g93
ssg81
g566
sg74
(lp573
g386
asbag67
(g88
g69
NtRp574
(dp575
g72
(dp576
g99
g100
ssg81
g566
sg74
(lp577
S':'
asbag67
(g88
g69
NtRp578
(dp579
g72
(dp580
sg81
g566
sg74
(lp581
g67
(g68
g69
NtRp582
(dp583
g72
(dp584
g80
I3
ssg81
g578
sg74
(lp585
S''
asbasbasbag67
(g83
g69
NtRp586
(dp587
g72
(dp588
sg81
g462
sg74
(lp589
g67
(g88
g69
NtRp590
(dp591
g72
(dp592
g92
g93
ssg81
g586
sg74
(lp593
g407
asbag67
(g88
g69
NtRp594
(dp595
g72
(dp596
g99
g100
ssg81
g586
sg74
(lp597
S':'
asbag67
(g88
g69
NtRp598
(dp599
g72
(dp600
sg81
g586
sg74
(lp601
g67
(g68
g69
NtRp602
(dp603
g72
(dp604
g80
I3
ssg81
g598
sg74
(lp605
S''
asbasbasbag67
(g83
g69
NtRp606
(dp607
g72
(dp608
sg81
g462
sg74
(lp609
g67
(g88
g69
NtRp610
(dp611
g72
(dp612
g92
g93
ssg81
g606
sg74
(lp613
g428
asbag67
(g88
g69
NtRp614
(dp615
g72
(dp616
g99
g100
ssg81
g606
sg74
(lp617
S':'
asbag67
(g88
g69
NtRp618
(dp619
g72
(dp620
sg81
g606
sg74
(lp621
g67
(g68
g69
NtRp622
(dp623
g72
(dp624
g80
I3
ssg81
g618
sg74
(lp625
S''
asbasbasbasbasbasbasbag67
(g83
g69
NtRp626
(dp627
g72
(dp628
sg81
g244
sg74
(lp629
g67
(g88
g69
NtRp630
(dp631
g72
(dp632
g92
g93
ssg81
g626
sg74
(lp633
S'session_id_whiteboard'
p634
asbag67
(g88
g69
NtRp635
(dp636
g72
(dp637
g99
g100
ssg81
g626
sg74
(lp638
S':'
asbag67
(g88
g69
NtRp639
(dp640
g72
(dp641
sg81
g626
sg74
(lp642
g67
(g68
g69
NtRp643
(dp644
g72
(dp645
g80
I4
ssg81
g639
sg74
(lp646
g67
(g76
g69
NtRp647
(dp648
g72
(dp649
g80
I3
ssg81
Nsg74
(lp650
g67
(g83
g69
NtRp651
(dp652
g72
(dp653
sg81
g647
sg74
(lp654
g67
(g88
g69
NtRp655
(dp656
g72
(dp657
g92
g93
ssg81
g651
sg74
(lp658
g281
asbag67
(g88
g69
NtRp659
(dp660
g72
(dp661
g99
g100
ssg81
g651
sg74
(lp662
S':'
asbag67
(g88
g69
NtRp663
(dp664
g72
(dp665
sg81
g651
sg74
(lp666
g67
(g68
g69
NtRp667
(dp668
g72
(dp669
g80
I3
ssg81
g663
sg74
(lp670
S''
asbasbasbag67
(g83
g69
NtRp671
(dp672
g72
(dp673
sg81
g647
sg74
(lp674
g67
(g88
g69
NtRp675
(dp676
g72
(dp677
g92
g93
ssg81
g671
sg74
(lp678
g302
asbag67
(g88
g69
NtRp679
(dp680
g72
(dp681
g99
g100
ssg81
g671
sg74
(lp682
S':'
asbag67
(g88
g69
NtRp683
(dp684
g72
(dp685
sg81
g671
sg74
(lp686
g67
(g68
g69
NtRp687
(dp688
g72
(dp689
g80
I3
ssg81
g683
sg74
(lp690
S''
asbasbasbag67
(g83
g69
NtRp691
(dp692
g72
(dp693
sg81
g647
sg74
(lp694
g67
(g88
g69
NtRp695
(dp696
g72
(dp697
g92
g93
ssg81
g691
sg74
(lp698
g323
asbag67
(g88
g69
NtRp699
(dp700
g72
(dp701
g99
g100
ssg81
g691
sg74
(lp702
S':'
asbag67
(g88
g69
NtRp703
(dp704
g72
(dp705
sg81
g691
sg74
(lp706
g67
(g68
g69
NtRp707
(dp708
g72
(dp709
g80
I3
ssg81
g703
sg74
(lp710
S''
asbasbasbag67
(g83
g69
NtRp711
(dp712
g72
(dp713
sg81
g647
sg74
(lp714
g67
(g88
g69
NtRp715
(dp716
g72
(dp717
g92
g93
ssg81
g711
sg74
(lp718
g344
asbag67
(g88
g69
NtRp719
(dp720
g72
(dp721
g99
g100
ssg81
g711
sg74
(lp722
S':'
asbag67
(g88
g69
NtRp723
(dp724
g72
(dp725
sg81
g711
sg74
(lp726
g67
(g68
g69
NtRp727
(dp728
g72
(dp729
g80
I3
ssg81
g723
sg74
(lp730
S''
asbasbasbag67
(g83
g69
NtRp731
(dp732
g72
(dp733
sg81
g647
sg74
(lp734
g67
(g88
g69
NtRp735
(dp736
g72
(dp737
g92
g93
ssg81
g731
sg74
(lp738
g365
asbag67
(g88
g69
NtRp739
(dp740
g72
(dp741
g99
g100
ssg81
g731
sg74
(lp742
S':'
asbag67
(g88
g69
NtRp743
(dp744
g72
(dp745
sg81
g731
sg74
(lp746
g67
(g68
g69
NtRp747
(dp748
g72
(dp749
g80
I3
ssg81
g743
sg74
(lp750
S''
asbasbasbag67
(g83
g69
NtRp751
(dp752
g72
(dp753
sg81
g647
sg74
(lp754
g67
(g88
g69
NtRp755
(dp756
g72
(dp757
g92
g93
ssg81
g751
sg74
(lp758
g386
asbag67
(g88
g69
NtRp759
(dp760
g72
(dp761
g99
g100
ssg81
g751
sg74
(lp762
S':'
asbag67
(g88
g69
NtRp763
(dp764
g72
(dp765
sg81
g751
sg74
(lp766
g67
(g68
g69
NtRp767
(dp768
g72
(dp769
g80
I3
ssg81
g763
sg74
(lp770
S''
asbasbasbag67
(g83
g69
NtRp771
(dp772
g72
(dp773
sg81
g647
sg74
(lp774
g67
(g88
g69
NtRp775
(dp776
g72
(dp777
g92
g93
ssg81
g771
sg74
(lp778
g407
asbag67
(g88
g69
NtRp779
(dp780
g72
(dp781
g99
g100
ssg81
g771
sg74
(lp782
S':'
asbag67
(g88
g69
NtRp783
(dp784
g72
(dp785
sg81
g771
sg74
(lp786
g67
(g68
g69
NtRp787
(dp788
g72
(dp789
g80
I3
ssg81
g783
sg74
(lp790
S''
asbasbasbag67
(g83
g69
NtRp791
(dp792
g72
(dp793
sg81
g647
sg74
(lp794
g67
(g88
g69
NtRp795
(dp796
g72
(dp797
g92
g93
ssg81
g791
sg74
(lp798
g428
asbag67
(g88
g69
NtRp799
(dp800
g72
(dp801
g99
g100
ssg81
g791
sg74
(lp802
S':'
asbag67
(g88
g69
NtRp803
(dp804
g72
(dp805
sg81
g791
sg74
(lp806
g67
(g68
g69
NtRp807
(dp808
g72
(dp809
g80
I3
ssg81
g803
sg74
(lp810
S''
asbasbasbasbasbasbasbasbasbasbasbag67
(g83
g69
NtRp811
(dp812
g72
(dp813
sg81
g77
sg74
(lp814
g67
(g88
g69
NtRp815
(dp816
g72
(dp817
g92
g93
ssg81
g811
sg74
(lp818
S'env'
p819
asbag67
(g88
g69
NtRp820
(dp821
g72
(dp822
g99
g100
ssg81
g811
sg74
(lp823
S':'
asbag67
(g88
g69
NtRp824
(dp825
g72
(dp826
sg81
g811
sg74
(lp827
g67
(g68
g69
NtRp828
(dp829
g72
(dp830
g80
I5
ssg81
g824
sg74
(lp831
g67
(g76
g69
NtRp832
(dp833
g72
(dp834
g80
I4
ssg81
Nsg74
(lp835
g67
(g83
g69
NtRp836
(dp837
g72
(dp838
sg81
g832
sg74
(lp839
g67
(g88
g69
NtRp840
(dp841
g72
(dp842
g92
g93
ssg81
g836
sg74
(lp843
S'app_folders'
p844
asbag67
(g88
g69
NtRp845
(dp846
g72
(dp847
g99
g100
ssg81
g836
sg74
(lp848
S':'
asbag67
(g88
g69
NtRp849
(dp850
g72
(dp851
sg81
g836
sg74
(lp852
g67
(g68
g69
NtRp853
(dp854
g72
(dp855
g80
I4
ssg81
g849
sg74
(lp856
S"set(['/media/Windows/Users/Tushar/Education/IIIT/3rd_Year/2nd Sem/BTP/Project/web2py/applications/admin/', '/media/Windows/Users/Tushar/Education/IIIT/3rd_Year/2nd Sem/BTP/Project/web2py/applications/whiteboard/'])"
p857
asbasbasbag67
(g83
g69
NtRp858
(dp859
g72
(dp860
sg81
g832
sg74
(lp861
g67
(g88
g69
NtRp862
(dp863
g72
(dp864
g92
g93
ssg81
g858
sg74
(lp865
S'applications_parent'
p866
asbag67
(g88
g69
NtRp867
(dp868
g72
(dp869
g99
g100
ssg81
g858
sg74
(lp870
S':'
asbag67
(g88
g69
NtRp871
(dp872
g72
(dp873
sg81
g858
sg74
(lp874
g67
(g68
g69
NtRp875
(dp876
g72
(dp877
g80
I4
ssg81
g871
sg74
(lp878
S'/media/Windows/Users/Tushar/Education/IIIT/3rd_Year/2nd Sem/BTP/Project/web2py'
p879
asbasbasbag67
(g83
g69
NtRp880
(dp881
g72
(dp882
sg81
g832
sg74
(lp883
g67
(g88
g69
NtRp884
(dp885
g72
(dp886
g92
g93
ssg81
g880
sg74
(lp887
S'cmd_args'
p888
asbag67
(g88
g69
NtRp889
(dp890
g72
(dp891
g99
g100
ssg81
g880
sg74
(lp892
S':'
asbag67
(g88
g69
NtRp893
(dp894
g72
(dp895
sg81
g880
sg74
(lp896
g67
(g68
g69
NtRp897
(dp898
g72
(dp899
g80
I4
ssg81
g893
sg74
(lp900
g67
(g76
g69
NtRp901
(dp902
g72
(dp903
g80
I3
ssg81
Nsg74
(lp904
sbasbasbasbag67
(g83
g69
NtRp905
(dp906
g72
(dp907
sg81
g832
sg74
(lp908
g67
(g88
g69
NtRp909
(dp910
g72
(dp911
g92
g93
ssg81
g905
sg74
(lp912
S'cmd_options'
p913
asbag67
(g88
g69
NtRp914
(dp915
g72
(dp916
g99
g100
ssg81
g905
sg74
(lp917
S':'
asbag67
(g88
g69
NtRp918
(dp919
g72
(dp920
sg81
g905
sg74
(lp921
g67
(g68
g69
NtRp922
(dp923
g72
(dp924
g80
I4
ssg81
g918
sg74
(lp925
S"<Values at 0x8d6078c: {'verbose': False, 'ip': '10.1.36.150', 'shutdown_timeout': 5, 'taskbar': False, 'nocron': False, 'pid_filename': 'httpserver.pid', 'maxthreads': None, 'softcron': False, 'server_name': 'Tushar-PC', 'bpython': False, 'nogui': False, 'port': 8000, 'extcron': False, 'debuglevel': 30, 'test': None, 'folder': '/media/Windows/Users/Tushar/Education/IIIT/3rd_Year/2nd Sem/BTP/Project/web2py', 'config': '', 'import_models': False, 'winservice': '', 'shell': None, 'run': '', 'log_filename': 'httpserver.log', 'args': [''], 'socket_timeout': 5, 'ssl_ca_certificate': None, 'scheduler': None, 'profiler_filename': None, 'ssl_private_key': '', 'password': 'qwe123', 'request_queue_size': 5, 'ssl_certificate': '', 'cronjob': False, 'numthreads': None, 'quiet': False, 'interfaces': None, 'minthreads': None, 'timeout': 10, 'plain': False, 'nobanner': False}>"
p926
asbasbasbag67
(g83
g69
NtRp927
(dp928
g72
(dp929
sg81
g832
sg74
(lp930
g67
(g88
g69
NtRp931
(dp932
g72
(dp933
g92
g93
ssg81
g927
sg74
(lp934
S'db_sessions'
p935
asbag67
(g88
g69
NtRp936
(dp937
g72
(dp938
g99
g100
ssg81
g927
sg74
(lp939
S':'
asbag67
(g88
g69
NtRp940
(dp941
g72
(dp942
sg81
g927
sg74
(lp943
g67
(g68
g69
NtRp944
(dp945
g72
(dp946
g80
I4
ssg81
g940
sg74
(lp947
S'set([])'
p948
asbasbasbag67
(g83
g69
NtRp949
(dp950
g72
(dp951
sg81
g832
sg74
(lp952
g67
(g88
g69
NtRp953
(dp954
g72
(dp955
g92
g93
ssg81
g949
sg74
(lp956
S'debugging'
p957
asbag67
(g88
g69
NtRp958
(dp959
g72
(dp960
g99
g100
ssg81
g949
sg74
(lp961
S':'
asbag67
(g88
g69
NtRp962
(dp963
g72
(dp964
sg81
g949
sg74
(lp965
g67
(g68
g69
NtRp966
(dp967
g72
(dp968
g80
I4
ssg81
g962
sg74
(lp969
g110
asbasbasbag67
(g83
g69
NtRp970
(dp971
g72
(dp972
sg81
g832
sg74
(lp973
g67
(g88
g69
NtRp974
(dp975
g72
(dp976
g92
g93
ssg81
g970
sg74
(lp977
S'gluon_parent'
p978
asbag67
(g88
g69
NtRp979
(dp980
g72
(dp981
g99
g100
ssg81
g970
sg74
(lp982
S':'
asbag67
(g88
g69
NtRp983
(dp984
g72
(dp985
sg81
g970
sg74
(lp986
g67
(g68
g69
NtRp987
(dp988
g72
(dp989
g80
I4
ssg81
g983
sg74
(lp990
S'/media/Windows/Users/Tushar/Education/IIIT/3rd_Year/2nd Sem/BTP/Project/web2py'
p991
asbasbasbag67
(g83
g69
NtRp992
(dp993
g72
(dp994
sg81
g832
sg74
(lp995
g67
(g88
g69
NtRp996
(dp997
g72
(dp998
g92
g93
ssg81
g992
sg74
(lp999
S'http_accept'
p1000
asbag67
(g88
g69
NtRp1001
(dp1002
g72
(dp1003
g99
g100
ssg81
g992
sg74
(lp1004
S':'
asbag67
(g88
g69
NtRp1005
(dp1006
g72
(dp1007
sg81
g992
sg74
(lp1008
g67
(g68
g69
NtRp1009
(dp1010
g72
(dp1011
g80
I4
ssg81
g1005
sg74
(lp1012
S'text/html,application/xhtml+xml,application/xml;q=0.9,*/*;q=0.8'
p1013
asbasbasbag67
(g83
g69
NtRp1014
(dp1015
g72
(dp1016
sg81
g832
sg74
(lp1017
g67
(g88
g69
NtRp1018
(dp1019
g72
(dp1020
g92
g93
ssg81
g1014
sg74
(lp1021
S'http_accept_charset'
p1022
asbag67
(g88
g69
NtRp1023
(dp1024
g72
(dp1025
g99
g100
ssg81
g1014
sg74
(lp1026
S':'
asbag67
(g88
g69
NtRp1027
(dp1028
g72
(dp1029
sg81
g1014
sg74
(lp1030
g67
(g68
g69
NtRp1031
(dp1032
g72
(dp1033
g80
I4
ssg81
g1027
sg74
(lp1034
S'ISO-8859-1,utf-8;q=0.7,*;q=0.3'
p1035
asbasbasbag67
(g83
g69
NtRp1036
(dp1037
g72
(dp1038
sg81
g832
sg74
(lp1039
g67
(g88
g69
NtRp1040
(dp1041
g72
(dp1042
g92
g93
ssg81
g1036
sg74
(lp1043
S'http_accept_encoding'
p1044
asbag67
(g88
g69
NtRp1045
(dp1046
g72
(dp1047
g99
g100
ssg81
g1036
sg74
(lp1048
S':'
asbag67
(g88
g69
NtRp1049
(dp1050
g72
(dp1051
sg81
g1036
sg74
(lp1052
g67
(g68
g69
NtRp1053
(dp1054
g72
(dp1055
g80
I4
ssg81
g1049
sg74
(lp1056
S'gzip,deflate,sdch'
p1057
asbasbasbag67
(g83
g69
NtRp1058
(dp1059
g72
(dp1060
sg81
g832
sg74
(lp1061
g67
(g88
g69
NtRp1062
(dp1063
g72
(dp1064
g92
g93
ssg81
g1058
sg74
(lp1065
S'http_accept_language'
p1066
asbag67
(g88
g69
NtRp1067
(dp1068
g72
(dp1069
g99
g100
ssg81
g1058
sg74
(lp1070
S':'
asbag67
(g88
g69
NtRp1071
(dp1072
g72
(dp1073
sg81
g1058
sg74
(lp1074
g67
(g68
g69
NtRp1075
(dp1076
g72
(dp1077
g80
I4
ssg81
g1071
sg74
(lp1078
S'en-US,en;q=0.8'
p1079
asbasbasbag67
(g83
g69
NtRp1080
(dp1081
g72
(dp1082
sg81
g832
sg74
(lp1083
g67
(g88
g69
NtRp1084
(dp1085
g72
(dp1086
g92
g93
ssg81
g1080
sg74
(lp1087
S'http_cache_control'
p1088
asbag67
(g88
g69
NtRp1089
(dp1090
g72
(dp1091
g99
g100
ssg81
g1080
sg74
(lp1092
S':'
asbag67
(g88
g69
NtRp1093
(dp1094
g72
(dp1095
sg81
g1080
sg74
(lp1096
g67
(g68
g69
NtRp1097
(dp1098
g72
(dp1099
g80
I4
ssg81
g1093
sg74
(lp1100
S'max-age=0'
p1101
asbasbasbag67
(g83
g69
NtRp1102
(dp1103
g72
(dp1104
sg81
g832
sg74
(lp1105
g67
(g88
g69
NtRp1106
(dp1107
g72
(dp1108
g92
g93
ssg81
g1102
sg74
(lp1109
S'http_connection'
p1110
asbag67
(g88
g69
NtRp1111
(dp1112
g72
(dp1113
g99
g100
ssg81
g1102
sg74
(lp1114
S':'
asbag67
(g88
g69
NtRp1115
(dp1116
g72
(dp1117
sg81
g1102
sg74
(lp1118
g67
(g68
g69
NtRp1119
(dp1120
g72
(dp1121
g80
I4
ssg81
g1115
sg74
(lp1122
S'keep-alive'
p1123
asbasbasbag67
(g83
g69
NtRp1124
(dp1125
g72
(dp1126
sg81
g832
sg74
(lp1127
g67
(g88
g69
NtRp1128
(dp1129
g72
(dp1130
g92
g93
ssg81
g1124
sg74
(lp1131
S'http_cookie'
p1132
asbag67
(g88
g69
NtRp1133
(dp1134
g72
(dp1135
g99
g100
ssg81
g1124
sg74
(lp1136
S':'
asbag67
(g88
g69
NtRp1137
(dp1138
g72
(dp1139
sg81
g1124
sg74
(lp1140
g67
(g68
g69
NtRp1141
(dp1142
g72
(dp1143
g80
I4
ssg81
g1137
sg74
(lp1144
S'session_id_welcome=10.1.36.150-af806a6e-a2c3-4460-ac84-4f47bfa2ffd7; session_id_whiteboard=10.1.36.150-86d2f65c-db1a-4f1d-b060-33bbf35e6604; session_id_admin=10.1.36.150-2992e82f-9e06-4e04-bb65-f04d95cd7bab'
p1145
asbasbasbag67
(g83
g69
NtRp1146
(dp1147
g72
(dp1148
sg81
g832
sg74
(lp1149
g67
(g88
g69
NtRp1150
(dp1151
g72
(dp1152
g92
g93
ssg81
g1146
sg74
(lp1153
S'http_host'
p1154
asbag67
(g88
g69
NtRp1155
(dp1156
g72
(dp1157
g99
g100
ssg81
g1146
sg74
(lp1158
S':'
asbag67
(g88
g69
NtRp1159
(dp1160
g72
(dp1161
sg81
g1146
sg74
(lp1162
g67
(g68
g69
NtRp1163
(dp1164
g72
(dp1165
g80
I4
ssg81
g1159
sg74
(lp1166
S'10.1.36.150:8000'
p1167
asbasbasbag67
(g83
g69
NtRp1168
(dp1169
g72
(dp1170
sg81
g832
sg74
(lp1171
g67
(g88
g69
NtRp1172
(dp1173
g72
(dp1174
g92
g93
ssg81
g1168
sg74
(lp1175
S'http_referer'
p1176
asbag67
(g88
g69
NtRp1177
(dp1178
g72
(dp1179
g99
g100
ssg81
g1168
sg74
(lp1180
S':'
asbag67
(g88
g69
NtRp1181
(dp1182
g72
(dp1183
sg81
g1168
sg74
(lp1184
g67
(g68
g69
NtRp1185
(dp1186
g72
(dp1187
g80
I4
ssg81
g1181
sg74
(lp1188
S'http://10.1.36.150:8000/whiteboard/default/user/register'
p1189
asbasbasbag67
(g83
g69
NtRp1190
(dp1191
g72
(dp1192
sg81
g832
sg74
(lp1193
g67
(g88
g69
NtRp1194
(dp1195
g72
(dp1196
g92
g93
ssg81
g1190
sg74
(lp1197
S'http_user_agent'
p1198
asbag67
(g88
g69
NtRp1199
(dp1200
g72
(dp1201
g99
g100
ssg81
g1190
sg74
(lp1202
S':'
asbag67
(g88
g69
NtRp1203
(dp1204
g72
(dp1205
sg81
g1190
sg74
(lp1206
g67
(g68
g69
NtRp1207
(dp1208
g72
(dp1209
g80
I4
ssg81
g1203
sg74
(lp1210
S'Mozilla/5.0 (X11; Linux i686) AppleWebKit/535.11 (KHTML, like Gecko) Chrome/17.0.963.79 Safari/535.11'
p1211
asbasbasbag67
(g83
g69
NtRp1212
(dp1213
g72
(dp1214
sg81
g832
sg74
(lp1215
g67
(g88
g69
NtRp1216
(dp1217
g72
(dp1218
g92
g93
ssg81
g1212
sg74
(lp1219
S'is_jython'
p1220
asbag67
(g88
g69
NtRp1221
(dp1222
g72
(dp1223
g99
g100
ssg81
g1212
sg74
(lp1224
S':'
asbag67
(g88
g69
NtRp1225
(dp1226
g72
(dp1227
sg81
g1212
sg74
(lp1228
g67
(g68
g69
NtRp1229
(dp1230
g72
(dp1231
g80
I4
ssg81
g1225
sg74
(lp1232
g110
asbasbasbag67
(g83
g69
NtRp1233
(dp1234
g72
(dp1235
sg81
g832
sg74
(lp1236
g67
(g88
g69
NtRp1237
(dp1238
g72
(dp1239
g92
g93
ssg81
g1233
sg74
(lp1240
S'is_pypy'
p1241
asbag67
(g88
g69
NtRp1242
(dp1243
g72
(dp1244
g99
g100
ssg81
g1233
sg74
(lp1245
S':'
asbag67
(g88
g69
NtRp1246
(dp1247
g72
(dp1248
sg81
g1233
sg74
(lp1249
g67
(g68
g69
NtRp1250
(dp1251
g72
(dp1252
g80
I4
ssg81
g1246
sg74
(lp1253
g110
asbasbasbag67
(g83
g69
NtRp1254
(dp1255
g72
(dp1256
sg81
g832
sg74
(lp1257
g67
(g88
g69
NtRp1258
(dp1259
g72
(dp1260
g92
g93
ssg81
g1254
sg74
(lp1261
S'path_info'
p1262
asbag67
(g88
g69
NtRp1263
(dp1264
g72
(dp1265
g99
g100
ssg81
g1254
sg74
(lp1266
S':'
asbag67
(g88
g69
NtRp1267
(dp1268
g72
(dp1269
sg81
g1254
sg74
(lp1270
g67
(g68
g69
NtRp1271
(dp1272
g72
(dp1273
g80
I4
ssg81
g1267
sg74
(lp1274
S'/whiteboard/default/contact'
p1275
asbasbasbag67
(g83
g69
NtRp1276
(dp1277
g72
(dp1278
sg81
g832
sg74
(lp1279
g67
(g88
g69
NtRp1280
(dp1281
g72
(dp1282
g92
g93
ssg81
g1276
sg74
(lp1283
S'query_string'
p1284
asbag67
(g88
g69
NtRp1285
(dp1286
g72
(dp1287
g99
g100
ssg81
g1276
sg74
(lp1288
S':'
asbag67
(g88
g69
NtRp1289
(dp1290
g72
(dp1291
sg81
g1276
sg74
(lp1292
g67
(g68
g69
NtRp1293
(dp1294
g72
(dp1295
g80
I4
ssg81
g1289
sg74
(lp1296
S''
asbasbasbag67
(g83
g69
NtRp1297
(dp1298
g72
(dp1299
sg81
g832
sg74
(lp1300
g67
(g88
g69
NtRp1301
(dp1302
g72
(dp1303
g92
g93
ssg81
g1297
sg74
(lp1304
S'remote_addr'
p1305
asbag67
(g88
g69
NtRp1306
(dp1307
g72
(dp1308
g99
g100
ssg81
g1297
sg74
(lp1309
S':'
asbag67
(g88
g69
NtRp1310
(dp1311
g72
(dp1312
sg81
g1297
sg74
(lp1313
g67
(g68
g69
NtRp1314
(dp1315
g72
(dp1316
g80
I4
ssg81
g1310
sg74
(lp1317
g200
asbasbasbag67
(g83
g69
NtRp1318
(dp1319
g72
(dp1320
sg81
g832
sg74
(lp1321
g67
(g88
g69
NtRp1322
(dp1323
g72
(dp1324
g92
g93
ssg81
g1318
sg74
(lp1325
S'remote_port'
p1326
asbag67
(g88
g69
NtRp1327
(dp1328
g72
(dp1329
g99
g100
ssg81
g1318
sg74
(lp1330
S':'
asbag67
(g88
g69
NtRp1331
(dp1332
g72
(dp1333
sg81
g1318
sg74
(lp1334
g67
(g68
g69
NtRp1335
(dp1336
g72
(dp1337
g80
I4
ssg81
g1331
sg74
(lp1338
S'51798'
p1339
asbasbasbag67
(g83
g69
NtRp1340
(dp1341
g72
(dp1342
sg81
g832
sg74
(lp1343
g67
(g88
g69
NtRp1344
(dp1345
g72
(dp1346
g92
g93
ssg81
g1340
sg74
(lp1347
S'request_method'
p1348
asbag67
(g88
g69
NtRp1349
(dp1350
g72
(dp1351
g99
g100
ssg81
g1340
sg74
(lp1352
S':'
asbag67
(g88
g69
NtRp1353
(dp1354
g72
(dp1355
sg81
g1340
sg74
(lp1356
g67
(g68
g69
NtRp1357
(dp1358
g72
(dp1359
g80
I4
ssg81
g1353
sg74
(lp1360
S'GET'
p1361
asbasbasbag67
(g83
g69
NtRp1362
(dp1363
g72
(dp1364
sg81
g832
sg74
(lp1365
g67
(g88
g69
NtRp1366
(dp1367
g72
(dp1368
g92
g93
ssg81
g1362
sg74
(lp1369
S'script_name'
p1370
asbag67
(g88
g69
NtRp1371
(dp1372
g72
(dp1373
g99
g100
ssg81
g1362
sg74
(lp1374
S':'
asbag67
(g88
g69
NtRp1375
(dp1376
g72
(dp1377
sg81
g1362
sg74
(lp1378
g67
(g68
g69
NtRp1379
(dp1380
g72
(dp1381
g80
I4
ssg81
g1375
sg74
(lp1382
S''
asbasbasbag67
(g83
g69
NtRp1383
(dp1384
g72
(dp1385
sg81
g832
sg74
(lp1386
g67
(g88
g69
NtRp1387
(dp1388
g72
(dp1389
g92
g93
ssg81
g1383
sg74
(lp1390
S'server_name'
p1391
asbag67
(g88
g69
NtRp1392
(dp1393
g72
(dp1394
g99
g100
ssg81
g1383
sg74
(lp1395
S':'
asbag67
(g88
g69
NtRp1396
(dp1397
g72
(dp1398
sg81
g1383
sg74
(lp1399
g67
(g68
g69
NtRp1400
(dp1401
g72
(dp1402
g80
I4
ssg81
g1396
sg74
(lp1403
S'Tushar-PC'
p1404
asbasbasbag67
(g83
g69
NtRp1405
(dp1406
g72
(dp1407
sg81
g832
sg74
(lp1408
g67
(g88
g69
NtRp1409
(dp1410
g72
(dp1411
g92
g93
ssg81
g1405
sg74
(lp1412
S'server_port'
p1413
asbag67
(g88
g69
NtRp1414
(dp1415
g72
(dp1416
g99
g100
ssg81
g1405
sg74
(lp1417
S':'
asbag67
(g88
g69
NtRp1418
(dp1419
g72
(dp1420
sg81
g1405
sg74
(lp1421
g67
(g68
g69
NtRp1422
(dp1423
g72
(dp1424
g80
I4
ssg81
g1418
sg74
(lp1425
S'8000'
p1426
asbasbasbag67
(g83
g69
NtRp1427
(dp1428
g72
(dp1429
sg81
g832
sg74
(lp1430
g67
(g88
g69
NtRp1431
(dp1432
g72
(dp1433
g92
g93
ssg81
g1427
sg74
(lp1434
S'server_protocol'
p1435
asbag67
(g88
g69
NtRp1436
(dp1437
g72
(dp1438
g99
g100
ssg81
g1427
sg74
(lp1439
S':'
asbag67
(g88
g69
NtRp1440
(dp1441
g72
(dp1442
sg81
g1427
sg74
(lp1443
g67
(g68
g69
NtRp1444
(dp1445
g72
(dp1446
g80
I4
ssg81
g1440
sg74
(lp1447
S'HTTP/1.1'
p1448
asbasbasbag67
(g83
g69
NtRp1449
(dp1450
g72
(dp1451
sg81
g832
sg74
(lp1452
g67
(g88
g69
NtRp1453
(dp1454
g72
(dp1455
g92
g93
ssg81
g1449
sg74
(lp1456
S'server_software'
p1457
asbag67
(g88
g69
NtRp1458
(dp1459
g72
(dp1460
g99
g100
ssg81
g1449
sg74
(lp1461
S':'
asbag67
(g88
g69
NtRp1462
(dp1463
g72
(dp1464
sg81
g1449
sg74
(lp1465
g67
(g68
g69
NtRp1466
(dp1467
g72
(dp1468
g80
I4
ssg81
g1462
sg74
(lp1469
S'Rocket 1.2.4'
p1470
asbasbasbag67
(g83
g69
NtRp1471
(dp1472
g72
(dp1473
sg81
g832
sg74
(lp1474
g67
(g88
g69
NtRp1475
(dp1476
g72
(dp1477
g92
g93
ssg81
g1471
sg74
(lp1478
S'web2py_crontype'
p1479
asbag67
(g88
g69
NtRp1480
(dp1481
g72
(dp1482
g99
g100
ssg81
g1471
sg74
(lp1483
S':'
asbag67
(g88
g69
NtRp1484
(dp1485
g72
(dp1486
sg81
g1471
sg74
(lp1487
g67
(g68
g69
NtRp1488
(dp1489
g72
(dp1490
g80
I4
ssg81
g1484
sg74
(lp1491
S'hard'
p1492
asbasbasbag67
(g83
g69
NtRp1493
(dp1494
g72
(dp1495
sg81
g832
sg74
(lp1496
g67
(g88
g69
NtRp1497
(dp1498
g72
(dp1499
g92
g93
ssg81
g1493
sg74
(lp1500
S'web2py_path'
p1501
asbag67
(g88
g69
NtRp1502
(dp1503
g72
(dp1504
g99
g100
ssg81
g1493
sg74
(lp1505
S':'
asbag67
(g88
g69
NtRp1506
(dp1507
g72
(dp1508
sg81
g1493
sg74
(lp1509
g67
(g68
g69
NtRp1510
(dp1511
g72
(dp1512
g80
I4
ssg81
g1506
sg74
(lp1513
g879
asbasbasbag67
(g83
g69
NtRp1514
(dp1515
g72
(dp1516
sg81
g832
sg74
(lp1517
g67
(g88
g69
NtRp1518
(dp1519
g72
(dp1520
g92
g93
ssg81
g1514
sg74
(lp1521
S'web2py_version'
p1522
asbag67
(g88
g69
NtRp1523
(dp1524
g72
(dp1525
g99
g100
ssg81
g1514
sg74
(lp1526
S':'
asbag67
(g88
g69
NtRp1527
(dp1528
g72
(dp1529
sg81
g1514
sg74
(lp1530
g67
(g68
g69
NtRp1531
(dp1532
g72
(dp1533
g80
I4
ssg81
g1527
sg74
(lp1534
g67
(g76
g69
NtRp1535
(dp1536
g72
(dp1537
g80
I3
ssg81
Nsg74
(lp1538
g67
(g83
g69
NtRp1539
(dp1540
g72
(dp1541
sg81
g1535
sg74
(lp1542
g67
(g88
g69
NtRp1543
(dp1544
g72
(dp1545
sg81
g1539
sg74
(lp1546
g67
(g68
g69
NtRp1547
(dp1548
g72
(dp1549
g80
I3
ssg81
g1543
sg74
(lp1550
S'1'
asbasbasbag67
(g83
g69
NtRp1551
(dp1552
g72
(dp1553
sg81
g1535
sg74
(lp1554
g67
(g88
g69
NtRp1555
(dp1556
g72
(dp1557
sg81
g1551
sg74
(lp1558
g67
(g68
g69
NtRp1559
(dp1560
g72
(dp1561
g80
I3
ssg81
g1555
sg74
(lp1562
S'99'
p1563
asbasbasbag67
(g83
g69
NtRp1564
(dp1565
g72
(dp1566
sg81
g1535
sg74
(lp1567
g67
(g88
g69
NtRp1568
(dp1569
g72
(dp1570
sg81
g1564
sg74
(lp1571
g67
(g68
g69
NtRp1572
(dp1573
g72
(dp1574
g80
I3
ssg81
g1568
sg74
(lp1575
S'6'
asbasbasbag67
(g83
g69
NtRp1576
(dp1577
g72
(dp1578
sg81
g1535
sg74
(lp1579
g67
(g88
g69
NtRp1580
(dp1581
g72
(dp1582
sg81
g1576
sg74
(lp1583
g67
(g68
g69
NtRp1584
(dp1585
g72
(dp1586
g80
I3
ssg81
g1580
sg74
(lp1587
S'datetime.datetime(2012, 3, 2, 16, 43, 58)'
p1588
asbasbasbag67
(g83
g69
NtRp1589
(dp1590
g72
(dp1591
sg81
g1535
sg74
(lp1592
g67
(g88
g69
NtRp1593
(dp1594
g72
(dp1595
sg81
g1589
sg74
(lp1596
g67
(g68
g69
NtRp1597
(dp1598
g72
(dp1599
g80
I3
ssg81
g1593
sg74
(lp1600
S'stable'
p1601
asbasbasbasbasbasbasbag67
(g83
g69
NtRp1602
(dp1603
g72
(dp1604
sg81
g832
sg74
(lp1605
g67
(g88
g69
NtRp1606
(dp1607
g72
(dp1608
g92
g93
ssg81
g1602
sg74
(lp1609
S'wsgi_errors'
p1610
asbag67
(g88
g69
NtRp1611
(dp1612
g72
(dp1613
g99
g100
ssg81
g1602
sg74
(lp1614
S':'
asbag67
(g88
g69
NtRp1615
(dp1616
g72
(dp1617
sg81
g1602
sg74
(lp1618
g67
(g68
g69
NtRp1619
(dp1620
g72
(dp1621
g80
I4
ssg81
g1615
sg74
(lp1622
S"<open file '<stderr>', mode 'w' at 0xb749e0d0>"
p1623
asbasbasbag67
(g83
g69
NtRp1624
(dp1625
g72
(dp1626
sg81
g832
sg74
(lp1627
g67
(g88
g69
NtRp1628
(dp1629
g72
(dp1630
g92
g93
ssg81
g1624
sg74
(lp1631
S'wsgi_file_wrapper'
p1632
asbag67
(g88
g69
NtRp1633
(dp1634
g72
(dp1635
g99
g100
ssg81
g1624
sg74
(lp1636
S':'
asbag67
(g88
g69
NtRp1637
(dp1638
g72
(dp1639
sg81
g1624
sg74
(lp1640
g67
(g68
g69
NtRp1641
(dp1642
g72
(dp1643
g80
I4
ssg81
g1637
sg74
(lp1644
S'<class wsgiref.util.FileWrapper at 0x8cdeaac>'
p1645
asbasbasbag67
(g83
g69
NtRp1646
(dp1647
g72
(dp1648
sg81
g832
sg74
(lp1649
g67
(g88
g69
NtRp1650
(dp1651
g72
(dp1652
g92
g93
ssg81
g1646
sg74
(lp1653
S'wsgi_input'
p1654
asbag67
(g88
g69
NtRp1655
(dp1656
g72
(dp1657
g99
g100
ssg81
g1646
sg74
(lp1658
S':'
asbag67
(g88
g69
NtRp1659
(dp1660
g72
(dp1661
sg81
g1646
sg74
(lp1662
g67
(g68
g69
NtRp1663
(dp1664
g72
(dp1665
g80
I4
ssg81
g1659
sg74
(lp1666
S'<socket._fileobject object at 0x901a6ec>'
p1667
asbasbasbag67
(g83
g69
NtRp1668
(dp1669
g72
(dp1670
sg81
g832
sg74
(lp1671
g67
(g88
g69
NtRp1672
(dp1673
g72
(dp1674
g92
g93
ssg81
g1668
sg74
(lp1675
S'wsgi_multiprocess'
p1676
asbag67
(g88
g69
NtRp1677
(dp1678
g72
(dp1679
g99
g100
ssg81
g1668
sg74
(lp1680
S':'
asbag67
(g88
g69
NtRp1681
(dp1682
g72
(dp1683
sg81
g1668
sg74
(lp1684
g67
(g68
g69
NtRp1685
(dp1686
g72
(dp1687
g80
I4
ssg81
g1681
sg74
(lp1688
g110
asbasbasbag67
(g83
g69
NtRp1689
(dp1690
g72
(dp1691
sg81
g832
sg74
(lp1692
g67
(g88
g69
NtRp1693
(dp1694
g72
(dp1695
g92
g93
ssg81
g1689
sg74
(lp1696
S'wsgi_multithread'
p1697
asbag67
(g88
g69
NtRp1698
(dp1699
g72
(dp1700
g99
g100
ssg81
g1689
sg74
(lp1701
S':'
asbag67
(g88
g69
NtRp1702
(dp1703
g72
(dp1704
sg81
g1689
sg74
(lp1705
g67
(g68
g69
NtRp1706
(dp1707
g72
(dp1708
g80
I4
ssg81
g1702
sg74
(lp1709
S'True'
p1710
asbasbasbag67
(g83
g69
NtRp1711
(dp1712
g72
(dp1713
sg81
g832
sg74
(lp1714
g67
(g88
g69
NtRp1715
(dp1716
g72
(dp1717
g92
g93
ssg81
g1711
sg74
(lp1718
S'wsgi_run_once'
p1719
asbag67
(g88
g69
NtRp1720
(dp1721
g72
(dp1722
g99
g100
ssg81
g1711
sg74
(lp1723
S':'
asbag67
(g88
g69
NtRp1724
(dp1725
g72
(dp1726
sg81
g1711
sg74
(lp1727
g67
(g68
g69
NtRp1728
(dp1729
g72
(dp1730
g80
I4
ssg81
g1724
sg74
(lp1731
g110
asbasbasbag67
(g83
g69
NtRp1732
(dp1733
g72
(dp1734
sg81
g832
sg74
(lp1735
g67
(g88
g69
NtRp1736
(dp1737
g72
(dp1738
g92
g93
ssg81
g1732
sg74
(lp1739
S'wsgi_url_scheme'
p1740
asbag67
(g88
g69
NtRp1741
(dp1742
g72
(dp1743
g99
g100
ssg81
g1732
sg74
(lp1744
S':'
asbag67
(g88
g69
NtRp1745
(dp1746
g72
(dp1747
sg81
g1732
sg74
(lp1748
g67
(g68
g69
NtRp1749
(dp1750
g72
(dp1751
g80
I4
ssg81
g1745
sg74
(lp1752
S'http'
p1753
asbasbasbag67
(g83
g69
NtRp1754
(dp1755
g72
(dp1756
sg81
g832
sg74
(lp1757
g67
(g88
g69
NtRp1758
(dp1759
g72
(dp1760
g92
g93
ssg81
g1754
sg74
(lp1761
S'wsgi_version'
p1762
asbag67
(g88
g69
NtRp1763
(dp1764
g72
(dp1765
g99
g100
ssg81
g1754
sg74
(lp1766
S':'
asbag67
(g88
g69
NtRp1767
(dp1768
g72
(dp1769
sg81
g1754
sg74
(lp1770
g67
(g68
g69
NtRp1771
(dp1772
g72
(dp1773
g80
I4
ssg81
g1767
sg74
(lp1774
g67
(g76
g69
NtRp1775
(dp1776
g72
(dp1777
g80
I3
ssg81
Nsg74
(lp1778
g67
(g83
g69
NtRp1779
(dp1780
g72
(dp1781
sg81
g1775
sg74
(lp1782
g67
(g88
g69
NtRp1783
(dp1784
g72
(dp1785
sg81
g1779
sg74
(lp1786
g67
(g68
g69
NtRp1787
(dp1788
g72
(dp1789
g80
I3
ssg81
g1783
sg74
(lp1790
S'1'
asbasbasbag67
(g83
g69
NtRp1791
(dp1792
g72
(dp1793
sg81
g1775
sg74
(lp1794
g67
(g88
g69
NtRp1795
(dp1796
g72
(dp1797
sg81
g1791
sg74
(lp1798
g67
(g68
g69
NtRp1799
(dp1800
g72
(dp1801
g80
I3
ssg81
g1795
sg74
(lp1802
S'0'
asbasbasbasbasbasbasbasbasbasbasbag67
(g83
g69
NtRp1803
(dp1804
g72
(dp1805
sg81
g77
sg74
(lp1806
g67
(g88
g69
NtRp1807
(dp1808
g72
(dp1809
g92
g93
ssg81
g1803
sg74
(lp1810
S'extension'
p1811
asbag67
(g88
g69
NtRp1812
(dp1813
g72
(dp1814
g99
g100
ssg81
g1803
sg74
(lp1815
S':'
asbag67
(g88
g69
NtRp1816
(dp1817
g72
(dp1818
sg81
g1803
sg74
(lp1819
g67
(g68
g69
NtRp1820
(dp1821
g72
(dp1822
g80
I5
ssg81
g1816
sg74
(lp1823
S'html'
p1824
asbasbasbag67
(g83
g69
NtRp1825
(dp1826
g72
(dp1827
sg81
g77
sg74
(lp1828
g67
(g88
g69
NtRp1829
(dp1830
g72
(dp1831
g92
g93
ssg81
g1825
sg74
(lp1832
S'folder'
p1833
asbag67
(g88
g69
NtRp1834
(dp1835
g72
(dp1836
g99
g100
ssg81
g1825
sg74
(lp1837
S':'
asbag67
(g88
g69
NtRp1838
(dp1839
g72
(dp1840
sg81
g1825
sg74
(lp1841
g67
(g68
g69
NtRp1842
(dp1843
g72
(dp1844
g80
I5
ssg81
g1838
sg74
(lp1845
S'/media/Windows/Users/Tushar/Education/IIIT/3rd_Year/2nd Sem/BTP/Project/web2py/applications/whiteboard/'
p1846
asbasbasbag67
(g83
g69
NtRp1847
(dp1848
g72
(dp1849
sg81
g77
sg74
(lp1850
g67
(g88
g69
NtRp1851
(dp1852
g72
(dp1853
g92
g93
ssg81
g1847
sg74
(lp1854
S'function'
p1855
asbag67
(g88
g69
NtRp1856
(dp1857
g72
(dp1858
g99
g100
ssg81
g1847
sg74
(lp1859
S':'
asbag67
(g88
g69
NtRp1860
(dp1861
g72
(dp1862
sg81
g1847
sg74
(lp1863
g67
(g68
g69
NtRp1864
(dp1865
g72
(dp1866
g80
I5
ssg81
g1860
sg74
(lp1867
S'contact'
p1868
asbasbasbag67
(g83
g69
NtRp1869
(dp1870
g72
(dp1871
sg81
g77
sg74
(lp1872
g67
(g88
g69
NtRp1873
(dp1874
g72
(dp1875
g92
g93
ssg81
g1869
sg74
(lp1876
S'get_vars'
p1877
asbag67
(g88
g69
NtRp1878
(dp1879
g72
(dp1880
g99
g100
ssg81
g1869
sg74
(lp1881
S':'
asbag67
(g88
g69
NtRp1882
(dp1883
g72
(dp1884
sg81
g1869
sg74
(lp1885
g67
(g68
g69
NtRp1886
(dp1887
g72
(dp1888
g80
I5
ssg81
g1882
sg74
(lp1889
g67
(g76
g69
NtRp1890
(dp1891
g72
(dp1892
g80
I4
ssg81
Nsg74
(lp1893
sbasbasbasbag67
(g83
g69
NtRp1894
(dp1895
g72
(dp1896
sg81
g77
sg74
(lp1897
g67
(g88
g69
NtRp1898
(dp1899
g72
(dp1900
g92
g93
ssg81
g1894
sg74
(lp1901
S'global_settings'
p1902
asbag67
(g88
g69
NtRp1903
(dp1904
g72
(dp1905
g99
g100
ssg81
g1894
sg74
(lp1906
S':'
asbag67
(g88
g69
NtRp1907
(dp1908
g72
(dp1909
sg81
g1894
sg74
(lp1910
g67
(g68
g69
NtRp1911
(dp1912
g72
(dp1913
g80
I5
ssg81
g1907
sg74
(lp1914
g67
(g76
g69
NtRp1915
(dp1916
g72
(dp1917
g80
I4
ssg81
Nsg74
(lp1918
g67
(g83
g69
NtRp1919
(dp1920
g72
(dp1921
sg81
g1915
sg74
(lp1922
g67
(g88
g69
NtRp1923
(dp1924
g72
(dp1925
g92
g93
ssg81
g1919
sg74
(lp1926
g844
asbag67
(g88
g69
NtRp1927
(dp1928
g72
(dp1929
g99
g100
ssg81
g1919
sg74
(lp1930
S':'
asbag67
(g88
g69
NtRp1931
(dp1932
g72
(dp1933
sg81
g1919
sg74
(lp1934
g67
(g68
g69
NtRp1935
(dp1936
g72
(dp1937
g80
I4
ssg81
g1931
sg74
(lp1938
S"set(['/media/Windows/Users/Tushar/Education/IIIT/3rd_Year/2nd Sem/BTP/Project/web2py/applications/admin/', '/media/Windows/Users/Tushar/Education/IIIT/3rd_Year/2nd Sem/BTP/Project/web2py/applications/whiteboard/'])"
p1939
asbasbasbag67
(g83
g69
NtRp1940
(dp1941
g72
(dp1942
sg81
g1915
sg74
(lp1943
g67
(g88
g69
NtRp1944
(dp1945
g72
(dp1946
g92
g93
ssg81
g1940
sg74
(lp1947
g866
asbag67
(g88
g69
NtRp1948
(dp1949
g72
(dp1950
g99
g100
ssg81
g1940
sg74
(lp1951
S':'
asbag67
(g88
g69
NtRp1952
(dp1953
g72
(dp1954
sg81
g1940
sg74
(lp1955
g67
(g68
g69
NtRp1956
(dp1957
g72
(dp1958
g80
I4
ssg81
g1952
sg74
(lp1959
g879
asbasbasbag67
(g83
g69
NtRp1960
(dp1961
g72
(dp1962
sg81
g1915
sg74
(lp1963
g67
(g88
g69
NtRp1964
(dp1965
g72
(dp1966
g92
g93
ssg81
g1960
sg74
(lp1967
g888
asbag67
(g88
g69
NtRp1968
(dp1969
g72
(dp1970
g99
g100
ssg81
g1960
sg74
(lp1971
S':'
asbag67
(g88
g69
NtRp1972
(dp1973
g72
(dp1974
sg81
g1960
sg74
(lp1975
g67
(g68
g69
NtRp1976
(dp1977
g72
(dp1978
g80
I4
ssg81
g1972
sg74
(lp1979
g67
(g76
g69
NtRp1980
(dp1981
g72
(dp1982
g80
I3
ssg81
Nsg74
(lp1983
sbasbasbasbag67
(g83
g69
NtRp1984
(dp1985
g72
(dp1986
sg81
g1915
sg74
(lp1987
g67
(g88
g69
NtRp1988
(dp1989
g72
(dp1990
g92
g93
ssg81
g1984
sg74
(lp1991
g913
asbag67
(g88
g69
NtRp1992
(dp1993
g72
(dp1994
g99
g100
ssg81
g1984
sg74
(lp1995
S':'
asbag67
(g88
g69
NtRp1996
(dp1997
g72
(dp1998
sg81
g1984
sg74
(lp1999
g67
(g68
g69
NtRp2000
(dp2001
g72
(dp2002
g80
I4
ssg81
g1996
sg74
(lp2003
S"<Values at 0x8d6078c: {'verbose': False, 'ip': '10.1.36.150', 'shutdown_timeout': 5, 'taskbar': False, 'nocron': False, 'pid_filename': 'httpserver.pid', 'maxthreads': None, 'softcron': False, 'server_name': 'Tushar-PC', 'bpython': False, 'nogui': False, 'port': 8000, 'extcron': False, 'debuglevel': 30, 'test': None, 'folder': '/media/Windows/Users/Tushar/Education/IIIT/3rd_Year/2nd Sem/BTP/Project/web2py', 'config': '', 'import_models': False, 'winservice': '', 'shell': None, 'run': '', 'log_filename': 'httpserver.log', 'args': [''], 'socket_timeout': 5, 'ssl_ca_certificate': None, 'scheduler': None, 'profiler_filename': None, 'ssl_private_key': '', 'password': 'qwe123', 'request_queue_size': 5, 'ssl_certificate': '', 'cronjob': False, 'numthreads': None, 'quiet': False, 'interfaces': None, 'minthreads': None, 'timeout': 10, 'plain': False, 'nobanner': False}>"
p2004
asbasbasbag67
(g83
g69
NtRp2005
(dp2006
g72
(dp2007
sg81
g1915
sg74
(lp2008
g67
(g88
g69
NtRp2009
(dp2010
g72
(dp2011
g92
g93
ssg81
g2005
sg74
(lp2012
g935
asbag67
(g88
g69
NtRp2013
(dp2014
g72
(dp2015
g99
g100
ssg81
g2005
sg74
(lp2016
S':'
asbag67
(g88
g69
NtRp2017
(dp2018
g72
(dp2019
sg81
g2005
sg74
(lp2020
g67
(g68
g69
NtRp2021
(dp2022
g72
(dp2023
g80
I4
ssg81
g2017
sg74
(lp2024
S'set([])'
p2025
asbasbasbag67
(g83
g69
NtRp2026
(dp2027
g72
(dp2028
sg81
g1915
sg74
(lp2029
g67
(g88
g69
NtRp2030
(dp2031
g72
(dp2032
g92
g93
ssg81
g2026
sg74
(lp2033
g957
asbag67
(g88
g69
NtRp2034
(dp2035
g72
(dp2036
g99
g100
ssg81
g2026
sg74
(lp2037
S':'
asbag67
(g88
g69
NtRp2038
(dp2039
g72
(dp2040
sg81
g2026
sg74
(lp2041
g67
(g68
g69
NtRp2042
(dp2043
g72
(dp2044
g80
I4
ssg81
g2038
sg74
(lp2045
g110
asbasbasbag67
(g83
g69
NtRp2046
(dp2047
g72
(dp2048
sg81
g1915
sg74
(lp2049
g67
(g88
g69
NtRp2050
(dp2051
g72
(dp2052
g92
g93
ssg81
g2046
sg74
(lp2053
g978
asbag67
(g88
g69
NtRp2054
(dp2055
g72
(dp2056
g99
g100
ssg81
g2046
sg74
(lp2057
S':'
asbag67
(g88
g69
NtRp2058
(dp2059
g72
(dp2060
sg81
g2046
sg74
(lp2061
g67
(g68
g69
NtRp2062
(dp2063
g72
(dp2064
g80
I4
ssg81
g2058
sg74
(lp2065
g991
asbasbasbag67
(g83
g69
NtRp2066
(dp2067
g72
(dp2068
sg81
g1915
sg74
(lp2069
g67
(g88
g69
NtRp2070
(dp2071
g72
(dp2072
g92
g93
ssg81
g2066
sg74
(lp2073
g1220
asbag67
(g88
g69
NtRp2074
(dp2075
g72
(dp2076
g99
g100
ssg81
g2066
sg74
(lp2077
S':'
asbag67
(g88
g69
NtRp2078
(dp2079
g72
(dp2080
sg81
g2066
sg74
(lp2081
g67
(g68
g69
NtRp2082
(dp2083
g72
(dp2084
g80
I4
ssg81
g2078
sg74
(lp2085
g110
asbasbasbag67
(g83
g69
NtRp2086
(dp2087
g72
(dp2088
sg81
g1915
sg74
(lp2089
g67
(g88
g69
NtRp2090
(dp2091
g72
(dp2092
g92
g93
ssg81
g2086
sg74
(lp2093
g1241
asbag67
(g88
g69
NtRp2094
(dp2095
g72
(dp2096
g99
g100
ssg81
g2086
sg74
(lp2097
S':'
asbag67
(g88
g69
NtRp2098
(dp2099
g72
(dp2100
sg81
g2086
sg74
(lp2101
g67
(g68
g69
NtRp2102
(dp2103
g72
(dp2104
g80
I4
ssg81
g2098
sg74
(lp2105
g110
asbasbasbag67
(g83
g69
NtRp2106
(dp2107
g72
(dp2108
sg81
g1915
sg74
(lp2109
g67
(g88
g69
NtRp2110
(dp2111
g72
(dp2112
g92
g93
ssg81
g2106
sg74
(lp2113
g1479
asbag67
(g88
g69
NtRp2114
(dp2115
g72
(dp2116
g99
g100
ssg81
g2106
sg74
(lp2117
S':'
asbag67
(g88
g69
NtRp2118
(dp2119
g72
(dp2120
sg81
g2106
sg74
(lp2121
g67
(g68
g69
NtRp2122
(dp2123
g72
(dp2124
g80
I4
ssg81
g2118
sg74
(lp2125
g1492
asbasbasbag67
(g83
g69
NtRp2126
(dp2127
g72
(dp2128
sg81
g1915
sg74
(lp2129
g67
(g88
g69
NtRp2130
(dp2131
g72
(dp2132
g92
g93
ssg81
g2126
sg74
(lp2133
g1522
asbag67
(g88
g69
NtRp2134
(dp2135
g72
(dp2136
g99
g100
ssg81
g2126
sg74
(lp2137
S':'
asbag67
(g88
g69
NtRp2138
(dp2139
g72
(dp2140
sg81
g2126
sg74
(lp2141
g67
(g68
g69
NtRp2142
(dp2143
g72
(dp2144
g80
I4
ssg81
g2138
sg74
(lp2145
g67
(g76
g69
NtRp2146
(dp2147
g72
(dp2148
g80
I3
ssg81
Nsg74
(lp2149
g67
(g83
g69
NtRp2150
(dp2151
g72
(dp2152
sg81
g2146
sg74
(lp2153
g67
(g88
g69
NtRp2154
(dp2155
g72
(dp2156
sg81
g2150
sg74
(lp2157
g67
(g68
g69
NtRp2158
(dp2159
g72
(dp2160
g80
I3
ssg81
g2154
sg74
(lp2161
S'1'
asbasbasbag67
(g83
g69
NtRp2162
(dp2163
g72
(dp2164
sg81
g2146
sg74
(lp2165
g67
(g88
g69
NtRp2166
(dp2167
g72
(dp2168
sg81
g2162
sg74
(lp2169
g67
(g68
g69
NtRp2170
(dp2171
g72
(dp2172
g80
I3
ssg81
g2166
sg74
(lp2173
S'99'
p2174
asbasbasbag67
(g83
g69
NtRp2175
(dp2176
g72
(dp2177
sg81
g2146
sg74
(lp2178
g67
(g88
g69
NtRp2179
(dp2180
g72
(dp2181
sg81
g2175
sg74
(lp2182
g67
(g68
g69
NtRp2183
(dp2184
g72
(dp2185
g80
I3
ssg81
g2179
sg74
(lp2186
S'6'
asbasbasbag67
(g83
g69
NtRp2187
(dp2188
g72
(dp2189
sg81
g2146
sg74
(lp2190
g67
(g88
g69
NtRp2191
(dp2192
g72
(dp2193
sg81
g2187
sg74
(lp2194
g67
(g68
g69
NtRp2195
(dp2196
g72
(dp2197
g80
I3
ssg81
g2191
sg74
(lp2198
S'datetime.datetime(2012, 3, 2, 16, 43, 58)'
p2199
asbasbasbag67
(g83
g69
NtRp2200
(dp2201
g72
(dp2202
sg81
g2146
sg74
(lp2203
g67
(g88
g69
NtRp2204
(dp2205
g72
(dp2206
sg81
g2200
sg74
(lp2207
g67
(g68
g69
NtRp2208
(dp2209
g72
(dp2210
g80
I3
ssg81
g2204
sg74
(lp2211
g1601
asbasbasbasbasbasbasbasbasbasbasbag67
(g83
g69
NtRp2212
(dp2213
g72
(dp2214
sg81
g77
sg74
(lp2215
g67
(g88
g69
NtRp2216
(dp2217
g72
(dp2218
g92
g93
ssg81
g2212
sg74
(lp2219
S'is_https'
p2220
asbag67
(g88
g69
NtRp2221
(dp2222
g72
(dp2223
g99
g100
ssg81
g2212
sg74
(lp2224
S':'
asbag67
(g88
g69
NtRp2225
(dp2226
g72
(dp2227
sg81
g2212
sg74
(lp2228
g67
(g68
g69
NtRp2229
(dp2230
g72
(dp2231
g80
I5
ssg81
g2225
sg74
(lp2232
g110
asbasbasbag67
(g83
g69
NtRp2233
(dp2234
g72
(dp2235
sg81
g77
sg74
(lp2236
g67
(g88
g69
NtRp2237
(dp2238
g72
(dp2239
g92
g93
ssg81
g2233
sg74
(lp2240
S'is_local'
p2241
asbag67
(g88
g69
NtRp2242
(dp2243
g72
(dp2244
g99
g100
ssg81
g2233
sg74
(lp2245
S':'
asbag67
(g88
g69
NtRp2246
(dp2247
g72
(dp2248
sg81
g2233
sg74
(lp2249
g67
(g68
g69
NtRp2250
(dp2251
g72
(dp2252
g80
I5
ssg81
g2246
sg74
(lp2253
g1710
asbasbasbag67
(g83
g69
NtRp2254
(dp2255
g72
(dp2256
sg81
g77
sg74
(lp2257
g67
(g88
g69
NtRp2258
(dp2259
g72
(dp2260
g92
g93
ssg81
g2254
sg74
(lp2261
S'is_restful'
p2262
asbag67
(g88
g69
NtRp2263
(dp2264
g72
(dp2265
g99
g100
ssg81
g2254
sg74
(lp2266
S':'
asbag67
(g88
g69
NtRp2267
(dp2268
g72
(dp2269
sg81
g2254
sg74
(lp2270
g67
(g68
g69
NtRp2271
(dp2272
g72
(dp2273
g80
I5
ssg81
g2267
sg74
(lp2274
g110
asbasbasbag67
(g83
g69
NtRp2275
(dp2276
g72
(dp2277
sg81
g77
sg74
(lp2278
g67
(g88
g69
NtRp2279
(dp2280
g72
(dp2281
g92
g93
ssg81
g2275
sg74
(lp2282
S'now'
p2283
asbag67
(g88
g69
NtRp2284
(dp2285
g72
(dp2286
g99
g100
ssg81
g2275
sg74
(lp2287
S':'
asbag67
(g88
g69
NtRp2288
(dp2289
g72
(dp2290
sg81
g2275
sg74
(lp2291
g67
(g68
g69
NtRp2292
(dp2293
g72
(dp2294
g80
I5
ssg81
g2288
sg74
(lp2295
S'datetime.datetime(2012, 3, 23, 10, 20, 38, 625147)'
p2296
asbasbasbag67
(g83
g69
NtRp2297
(dp2298
g72
(dp2299
sg81
g77
sg74
(lp2300
g67
(g88
g69
NtRp2301
(dp2302
g72
(dp2303
g92
g93
ssg81
g2297
sg74
(lp2304
S'post_vars'
p2305
asbag67
(g88
g69
NtRp2306
(dp2307
g72
(dp2308
g99
g100
ssg81
g2297
sg74
(lp2309
S':'
asbag67
(g88
g69
NtRp2310
(dp2311
g72
(dp2312
sg81
g2297
sg74
(lp2313
g67
(g68
g69
NtRp2314
(dp2315
g72
(dp2316
g80
I5
ssg81
g2310
sg74
(lp2317
g67
(g76
g69
NtRp2318
(dp2319
g72
(dp2320
g80
I4
ssg81
Nsg74
(lp2321
sbasbasbasbag67
(g83
g69
NtRp2322
(dp2323
g72
(dp2324
sg81
g77
sg74
(lp2325
g67
(g88
g69
NtRp2326
(dp2327
g72
(dp2328
g92
g93
ssg81
g2322
sg74
(lp2329
S'url'
p2330
asbag67
(g88
g69
NtRp2331
(dp2332
g72
(dp2333
g99
g100
ssg81
g2322
sg74
(lp2334
S':'
asbag67
(g88
g69
NtRp2335
(dp2336
g72
(dp2337
sg81
g2322
sg74
(lp2338
g67
(g68
g69
NtRp2339
(dp2340
g72
(dp2341
g80
I5
ssg81
g2335
sg74
(lp2342
S'/whiteboard/default/contact'
p2343
asbasbasbag67
(g83
g69
NtRp2344
(dp2345
g72
(dp2346
sg81
g77
sg74
(lp2347
g67
(g88
g69
NtRp2348
(dp2349
g72
(dp2350
g92
g93
ssg81
g2344
sg74
(lp2351
S'utcnow'
p2352
asbag67
(g88
g69
NtRp2353
(dp2354
g72
(dp2355
g99
g100
ssg81
g2344
sg74
(lp2356
S':'
asbag67
(g88
g69
NtRp2357
(dp2358
g72
(dp2359
sg81
g2344
sg74
(lp2360
g67
(g68
g69
NtRp2361
(dp2362
g72
(dp2363
g80
I5
ssg81
g2357
sg74
(lp2364
S'datetime.datetime(2012, 3, 23, 4, 50, 38, 625174)'
p2365
asbasbasbag67
(g83
g69
NtRp2366
(dp2367
g72
(dp2368
sg81
g77
sg74
(lp2369
g67
(g88
g69
NtRp2370
(dp2371
g72
(dp2372
g92
g93
ssg81
g2366
sg74
(lp2373
S'uuid'
p2374
asbag67
(g88
g69
NtRp2375
(dp2376
g72
(dp2377
g99
g100
ssg81
g2366
sg74
(lp2378
S':'
asbag67
(g88
g69
NtRp2379
(dp2380
g72
(dp2381
sg81
g2366
sg74
(lp2382
g67
(g68
g69
NtRp2383
(dp2384
g72
(dp2385
g80
I5
ssg81
g2379
sg74
(lp2386
S'whiteboard/10.1.36.150.2012-03-23.10-20-38.0bc5644f-245a-4430-9b33-945d27734ce5'
p2387
asbasbasbag67
(g83
g69
NtRp2388
(dp2389
g72
(dp2390
sg81
g77
sg74
(lp2391
g67
(g88
g69
NtRp2392
(dp2393
g72
(dp2394
g92
g93
ssg81
g2388
sg74
(lp2395
S'vars'
p2396
asbag67
(g88
g69
NtRp2397
(dp2398
g72
(dp2399
g99
g100
ssg81
g2388
sg74
(lp2400
S':'
asbag67
(g88
g69
NtRp2401
(dp2402
g72
(dp2403
sg81
g2388
sg74
(lp2404
g67
(g68
g69
NtRp2405
(dp2406
g72
(dp2407
g80
I5
ssg81
g2401
sg74
(lp2408
g67
(g76
g69
NtRp2409
(dp2410
g72
(dp2411
g80
I4
ssg81
Nsg74
(lp2412
sbasbasbasbag67
(g83
g69
NtRp2413
(dp2414
g72
(dp2415
sg81
g77
sg74
(lp2416
g67
(g88
g69
NtRp2417
(dp2418
g72
(dp2419
g92
g93
ssg81
g2413
sg74
(lp2420
S'wsgi'
p2421
asbag67
(g88
g69
NtRp2422
(dp2423
g72
(dp2424
g99
g100
ssg81
g2413
sg74
(lp2425
S':'
asbag67
(g88
g69
NtRp2426
(dp2427
g72
(dp2428
sg81
g2413
sg74
(lp2429
g67
(g68
g69
NtRp2430
(dp2431
g72
(dp2432
g80
I5
ssg81
g2426
sg74
(lp2433
g67
(g76
g69
NtRp2434
(dp2435
g72
(dp2436
g80
I4
ssg81
Nsg74
(lp2437
g67
(g83
g69
NtRp2438
(dp2439
g72
(dp2440
sg81
g2434
sg74
(lp2441
g67
(g88
g69
NtRp2442
(dp2443
g72
(dp2444
g92
g93
ssg81
g2438
sg74
(lp2445
S'environ'
p2446
asbag67
(g88
g69
NtRp2447
(dp2448
g72
(dp2449
g99
g100
ssg81
g2438
sg74
(lp2450
S':'
asbag67
(g88
g69
NtRp2451
(dp2452
g72
(dp2453
sg81
g2438
sg74
(lp2454
g67
(g68
g69
NtRp2455
(dp2456
g72
(dp2457
g80
I4
ssg81
g2451
sg74
(lp2458
g67
(g76
g69
NtRp2459
(dp2460
g72
(dp2461
g80
I3
ssg81
Nsg74
(lp2462
g67
(g83
g69
NtRp2463
(dp2464
g72
(dp2465
sg81
g2459
sg74
(lp2466
g67
(g88
g69
NtRp2467
(dp2468
g72
(dp2469
g92
g93
ssg81
g2463
sg74
(lp2470
S'HTTP_ACCEPT'
p2471
asbag67
(g88
g69
NtRp2472
(dp2473
g72
(dp2474
g99
g100
ssg81
g2463
sg74
(lp2475
S':'
asbag67
(g88
g69
NtRp2476
(dp2477
g72
(dp2478
sg81
g2463
sg74
(lp2479
g67
(g68
g69
NtRp2480
(dp2481
g72
(dp2482
g80
I3
ssg81
g2476
sg74
(lp2483
g1013
asbasbasbag67
(g83
g69
NtRp2484
(dp2485
g72
(dp2486
sg81
g2459
sg74
(lp2487
g67
(g88
g69
NtRp2488
(dp2489
g72
(dp2490
g92
g93
ssg81
g2484
sg74
(lp2491
S'HTTP_ACCEPT_CHARSET'
p2492
asbag67
(g88
g69
NtRp2493
(dp2494
g72
(dp2495
g99
g100
ssg81
g2484
sg74
(lp2496
S':'
asbag67
(g88
g69
NtRp2497
(dp2498
g72
(dp2499
sg81
g2484
sg74
(lp2500
g67
(g68
g69
NtRp2501
(dp2502
g72
(dp2503
g80
I3
ssg81
g2497
sg74
(lp2504
g1035
asbasbasbag67
(g83
g69
NtRp2505
(dp2506
g72
(dp2507
sg81
g2459
sg74
(lp2508
g67
(g88
g69
NtRp2509
(dp2510
g72
(dp2511
g92
g93
ssg81
g2505
sg74
(lp2512
S'HTTP_ACCEPT_ENCODING'
p2513
asbag67
(g88
g69
NtRp2514
(dp2515
g72
(dp2516
g99
g100
ssg81
g2505
sg74
(lp2517
S':'
asbag67
(g88
g69
NtRp2518
(dp2519
g72
(dp2520
sg81
g2505
sg74
(lp2521
g67
(g68
g69
NtRp2522
(dp2523
g72
(dp2524
g80
I3
ssg81
g2518
sg74
(lp2525
g1057
asbasbasbag67
(g83
g69
NtRp2526
(dp2527
g72
(dp2528
sg81
g2459
sg74
(lp2529
g67
(g88
g69
NtRp2530
(dp2531
g72
(dp2532
g92
g93
ssg81
g2526
sg74
(lp2533
S'HTTP_ACCEPT_LANGUAGE'
p2534
asbag67
(g88
g69
NtRp2535
(dp2536
g72
(dp2537
g99
g100
ssg81
g2526
sg74
(lp2538
S':'
asbag67
(g88
g69
NtRp2539
(dp2540
g72
(dp2541
sg81
g2526
sg74
(lp2542
g67
(g68
g69
NtRp2543
(dp2544
g72
(dp2545
g80
I3
ssg81
g2539
sg74
(lp2546
g1079
asbasbasbag67
(g83
g69
NtRp2547
(dp2548
g72
(dp2549
sg81
g2459
sg74
(lp2550
g67
(g88
g69
NtRp2551
(dp2552
g72
(dp2553
g92
g93
ssg81
g2547
sg74
(lp2554
S'HTTP_CACHE_CONTROL'
p2555
asbag67
(g88
g69
NtRp2556
(dp2557
g72
(dp2558
g99
g100
ssg81
g2547
sg74
(lp2559
S':'
asbag67
(g88
g69
NtRp2560
(dp2561
g72
(dp2562
sg81
g2547
sg74
(lp2563
g67
(g68
g69
NtRp2564
(dp2565
g72
(dp2566
g80
I3
ssg81
g2560
sg74
(lp2567
g1101
asbasbasbag67
(g83
g69
NtRp2568
(dp2569
g72
(dp2570
sg81
g2459
sg74
(lp2571
g67
(g88
g69
NtRp2572
(dp2573
g72
(dp2574
g92
g93
ssg81
g2568
sg74
(lp2575
S'HTTP_CONNECTION'
p2576
asbag67
(g88
g69
NtRp2577
(dp2578
g72
(dp2579
g99
g100
ssg81
g2568
sg74
(lp2580
S':'
asbag67
(g88
g69
NtRp2581
(dp2582
g72
(dp2583
sg81
g2568
sg74
(lp2584
g67
(g68
g69
NtRp2585
(dp2586
g72
(dp2587
g80
I3
ssg81
g2581
sg74
(lp2588
g1123
asbasbasbag67
(g83
g69
NtRp2589
(dp2590
g72
(dp2591
sg81
g2459
sg74
(lp2592
g67
(g88
g69
NtRp2593
(dp2594
g72
(dp2595
g92
g93
ssg81
g2589
sg74
(lp2596
S'HTTP_COOKIE'
p2597
asbag67
(g88
g69
NtRp2598
(dp2599
g72
(dp2600
g99
g100
ssg81
g2589
sg74
(lp2601
S':'
asbag67
(g88
g69
NtRp2602
(dp2603
g72
(dp2604
sg81
g2589
sg74
(lp2605
g67
(g68
g69
NtRp2606
(dp2607
g72
(dp2608
g80
I3
ssg81
g2602
sg74
(lp2609
g1145
asbasbasbag67
(g83
g69
NtRp2610
(dp2611
g72
(dp2612
sg81
g2459
sg74
(lp2613
g67
(g88
g69
NtRp2614
(dp2615
g72
(dp2616
g92
g93
ssg81
g2610
sg74
(lp2617
S'HTTP_HOST'
p2618
asbag67
(g88
g69
NtRp2619
(dp2620
g72
(dp2621
g99
g100
ssg81
g2610
sg74
(lp2622
S':'
asbag67
(g88
g69
NtRp2623
(dp2624
g72
(dp2625
sg81
g2610
sg74
(lp2626
g67
(g68
g69
NtRp2627
(dp2628
g72
(dp2629
g80
I3
ssg81
g2623
sg74
(lp2630
g1167
asbasbasbag67
(g83
g69
NtRp2631
(dp2632
g72
(dp2633
sg81
g2459
sg74
(lp2634
g67
(g88
g69
NtRp2635
(dp2636
g72
(dp2637
g92
g93
ssg81
g2631
sg74
(lp2638
S'HTTP_REFERER'
p2639
asbag67
(g88
g69
NtRp2640
(dp2641
g72
(dp2642
g99
g100
ssg81
g2631
sg74
(lp2643
S':'
asbag67
(g88
g69
NtRp2644
(dp2645
g72
(dp2646
sg81
g2631
sg74
(lp2647
g67
(g68
g69
NtRp2648
(dp2649
g72
(dp2650
g80
I3
ssg81
g2644
sg74
(lp2651
g1189
asbasbasbag67
(g83
g69
NtRp2652
(dp2653
g72
(dp2654
sg81
g2459
sg74
(lp2655
g67
(g88
g69
NtRp2656
(dp2657
g72
(dp2658
g92
g93
ssg81
g2652
sg74
(lp2659
S'HTTP_USER_AGENT'
p2660
asbag67
(g88
g69
NtRp2661
(dp2662
g72
(dp2663
g99
g100
ssg81
g2652
sg74
(lp2664
S':'
asbag67
(g88
g69
NtRp2665
(dp2666
g72
(dp2667
sg81
g2652
sg74
(lp2668
g67
(g68
g69
NtRp2669
(dp2670
g72
(dp2671
g80
I3
ssg81
g2665
sg74
(lp2672
g1211
asbasbasbag67
(g83
g69
NtRp2673
(dp2674
g72
(dp2675
sg81
g2459
sg74
(lp2676
g67
(g88
g69
NtRp2677
(dp2678
g72
(dp2679
g92
g93
ssg81
g2673
sg74
(lp2680
S'PATH_INFO'
p2681
asbag67
(g88
g69
NtRp2682
(dp2683
g72
(dp2684
g99
g100
ssg81
g2673
sg74
(lp2685
S':'
asbag67
(g88
g69
NtRp2686
(dp2687
g72
(dp2688
sg81
g2673
sg74
(lp2689
g67
(g68
g69
NtRp2690
(dp2691
g72
(dp2692
g80
I3
ssg81
g2686
sg74
(lp2693
g1275
asbasbasbag67
(g83
g69
NtRp2694
(dp2695
g72
(dp2696
sg81
g2459
sg74
(lp2697
g67
(g88
g69
NtRp2698
(dp2699
g72
(dp2700
g92
g93
ssg81
g2694
sg74
(lp2701
S'QUERY_STRING'
p2702
asbag67
(g88
g69
NtRp2703
(dp2704
g72
(dp2705
g99
g100
ssg81
g2694
sg74
(lp2706
S':'
asbag67
(g88
g69
NtRp2707
(dp2708
g72
(dp2709
sg81
g2694
sg74
(lp2710
g67
(g68
g69
NtRp2711
(dp2712
g72
(dp2713
g80
I3
ssg81
g2707
sg74
(lp2714
S''
asbasbasbag67
(g83
g69
NtRp2715
(dp2716
g72
(dp2717
sg81
g2459
sg74
(lp2718
g67
(g88
g69
NtRp2719
(dp2720
g72
(dp2721
g92
g93
ssg81
g2715
sg74
(lp2722
S'REMOTE_ADDR'
p2723
asbag67
(g88
g69
NtRp2724
(dp2725
g72
(dp2726
g99
g100
ssg81
g2715
sg74
(lp2727
S':'
asbag67
(g88
g69
NtRp2728
(dp2729
g72
(dp2730
sg81
g2715
sg74
(lp2731
g67
(g68
g69
NtRp2732
(dp2733
g72
(dp2734
g80
I3
ssg81
g2728
sg74
(lp2735
g200
asbasbasbag67
(g83
g69
NtRp2736
(dp2737
g72
(dp2738
sg81
g2459
sg74
(lp2739
g67
(g88
g69
NtRp2740
(dp2741
g72
(dp2742
g92
g93
ssg81
g2736
sg74
(lp2743
S'REMOTE_PORT'
p2744
asbag67
(g88
g69
NtRp2745
(dp2746
g72
(dp2747
g99
g100
ssg81
g2736
sg74
(lp2748
S':'
asbag67
(g88
g69
NtRp2749
(dp2750
g72
(dp2751
sg81
g2736
sg74
(lp2752
g67
(g68
g69
NtRp2753
(dp2754
g72
(dp2755
g80
I3
ssg81
g2749
sg74
(lp2756
g1339
asbasbasbag67
(g83
g69
NtRp2757
(dp2758
g72
(dp2759
sg81
g2459
sg74
(lp2760
g67
(g88
g69
NtRp2761
(dp2762
g72
(dp2763
g92
g93
ssg81
g2757
sg74
(lp2764
S'REQUEST_METHOD'
p2765
asbag67
(g88
g69
NtRp2766
(dp2767
g72
(dp2768
g99
g100
ssg81
g2757
sg74
(lp2769
S':'
asbag67
(g88
g69
NtRp2770
(dp2771
g72
(dp2772
sg81
g2757
sg74
(lp2773
g67
(g68
g69
NtRp2774
(dp2775
g72
(dp2776
g80
I3
ssg81
g2770
sg74
(lp2777
g1361
asbasbasbag67
(g83
g69
NtRp2778
(dp2779
g72
(dp2780
sg81
g2459
sg74
(lp2781
g67
(g88
g69
NtRp2782
(dp2783
g72
(dp2784
g92
g93
ssg81
g2778
sg74
(lp2785
S'SCRIPT_NAME'
p2786
asbag67
(g88
g69
NtRp2787
(dp2788
g72
(dp2789
g99
g100
ssg81
g2778
sg74
(lp2790
S':'
asbag67
(g88
g69
NtRp2791
(dp2792
g72
(dp2793
sg81
g2778
sg74
(lp2794
g67
(g68
g69
NtRp2795
(dp2796
g72
(dp2797
g80
I3
ssg81
g2791
sg74
(lp2798
S''
asbasbasbag67
(g83
g69
NtRp2799
(dp2800
g72
(dp2801
sg81
g2459
sg74
(lp2802
g67
(g88
g69
NtRp2803
(dp2804
g72
(dp2805
g92
g93
ssg81
g2799
sg74
(lp2806
S'SERVER_NAME'
p2807
asbag67
(g88
g69
NtRp2808
(dp2809
g72
(dp2810
g99
g100
ssg81
g2799
sg74
(lp2811
S':'
asbag67
(g88
g69
NtRp2812
(dp2813
g72
(dp2814
sg81
g2799
sg74
(lp2815
g67
(g68
g69
NtRp2816
(dp2817
g72
(dp2818
g80
I3
ssg81
g2812
sg74
(lp2819
g1404
asbasbasbag67
(g83
g69
NtRp2820
(dp2821
g72
(dp2822
sg81
g2459
sg74
(lp2823
g67
(g88
g69
NtRp2824
(dp2825
g72
(dp2826
g92
g93
ssg81
g2820
sg74
(lp2827
S'SERVER_PORT'
p2828
asbag67
(g88
g69
NtRp2829
(dp2830
g72
(dp2831
g99
g100
ssg81
g2820
sg74
(lp2832
S':'
asbag67
(g88
g69
NtRp2833
(dp2834
g72
(dp2835
sg81
g2820
sg74
(lp2836
g67
(g68
g69
NtRp2837
(dp2838
g72
(dp2839
g80
I3
ssg81
g2833
sg74
(lp2840
g1426
asbasbasbag67
(g83
g69
NtRp2841
(dp2842
g72
(dp2843
sg81
g2459
sg74
(lp2844
g67
(g88
g69
NtRp2845
(dp2846
g72
(dp2847
g92
g93
ssg81
g2841
sg74
(lp2848
S'SERVER_PROTOCOL'
p2849
asbag67
(g88
g69
NtRp2850
(dp2851
g72
(dp2852
g99
g100
ssg81
g2841
sg74
(lp2853
S':'
asbag67
(g88
g69
NtRp2854
(dp2855
g72
(dp2856
sg81
g2841
sg74
(lp2857
g67
(g68
g69
NtRp2858
(dp2859
g72
(dp2860
g80
I3
ssg81
g2854
sg74
(lp2861
g1448
asbasbasbag67
(g83
g69
NtRp2862
(dp2863
g72
(dp2864
sg81
g2459
sg74
(lp2865
g67
(g88
g69
NtRp2866
(dp2867
g72
(dp2868
g92
g93
ssg81
g2862
sg74
(lp2869
S'SERVER_SOFTWARE'
p2870
asbag67
(g88
g69
NtRp2871
(dp2872
g72
(dp2873
g99
g100
ssg81
g2862
sg74
(lp2874
S':'
asbag67
(g88
g69
NtRp2875
(dp2876
g72
(dp2877
sg81
g2862
sg74
(lp2878
g67
(g68
g69
NtRp2879
(dp2880
g72
(dp2881
g80
I3
ssg81
g2875
sg74
(lp2882
g1470
asbasbasbag67
(g83
g69
NtRp2883
(dp2884
g72
(dp2885
sg81
g2459
sg74
(lp2886
g67
(g88
g69
NtRp2887
(dp2888
g72
(dp2889
g92
g93
ssg81
g2883
sg74
(lp2890
S'wsgi.errors'
p2891
asbag67
(g88
g69
NtRp2892
(dp2893
g72
(dp2894
g99
g100
ssg81
g2883
sg74
(lp2895
S':'
asbag67
(g88
g69
NtRp2896
(dp2897
g72
(dp2898
sg81
g2883
sg74
(lp2899
g67
(g68
g69
NtRp2900
(dp2901
g72
(dp2902
g80
I3
ssg81
g2896
sg74
(lp2903
S"<open file '<stderr>', mode 'w' at 0xb749e0d0>"
p2904
asbasbasbag67
(g83
g69
NtRp2905
(dp2906
g72
(dp2907
sg81
g2459
sg74
(lp2908
g67
(g88
g69
NtRp2909
(dp2910
g72
(dp2911
g92
g93
ssg81
g2905
sg74
(lp2912
S'wsgi.file_wrapper'
p2913
asbag67
(g88
g69
NtRp2914
(dp2915
g72
(dp2916
g99
g100
ssg81
g2905
sg74
(lp2917
S':'
asbag67
(g88
g69
NtRp2918
(dp2919
g72
(dp2920
sg81
g2905
sg74
(lp2921
g67
(g68
g69
NtRp2922
(dp2923
g72
(dp2924
g80
I3
ssg81
g2918
sg74
(lp2925
S'<class wsgiref.util.FileWrapper at 0x8cdeaac>'
p2926
asbasbasbag67
(g83
g69
NtRp2927
(dp2928
g72
(dp2929
sg81
g2459
sg74
(lp2930
g67
(g88
g69
NtRp2931
(dp2932
g72
(dp2933
g92
g93
ssg81
g2927
sg74
(lp2934
S'wsgi.input'
p2935
asbag67
(g88
g69
NtRp2936
(dp2937
g72
(dp2938
g99
g100
ssg81
g2927
sg74
(lp2939
S':'
asbag67
(g88
g69
NtRp2940
(dp2941
g72
(dp2942
sg81
g2927
sg74
(lp2943
g67
(g68
g69
NtRp2944
(dp2945
g72
(dp2946
g80
I3
ssg81
g2940
sg74
(lp2947
S'<cStringIO.StringO object at 0x8f7f160>'
p2948
asbasbasbag67
(g83
g69
NtRp2949
(dp2950
g72
(dp2951
sg81
g2459
sg74
(lp2952
g67
(g88
g69
NtRp2953
(dp2954
g72
(dp2955
g92
g93
ssg81
g2949
sg74
(lp2956
S'wsgi.multiprocess'
p2957
asbag67
(g88
g69
NtRp2958
(dp2959
g72
(dp2960
g99
g100
ssg81
g2949
sg74
(lp2961
S':'
asbag67
(g88
g69
NtRp2962
(dp2963
g72
(dp2964
sg81
g2949
sg74
(lp2965
g67
(g68
g69
NtRp2966
(dp2967
g72
(dp2968
g80
I3
ssg81
g2962
sg74
(lp2969
g110
asbasbasbag67
(g83
g69
NtRp2970
(dp2971
g72
(dp2972
sg81
g2459
sg74
(lp2973
g67
(g88
g69
NtRp2974
(dp2975
g72
(dp2976
g92
g93
ssg81
g2970
sg74
(lp2977
S'wsgi.multithread'
p2978
asbag67
(g88
g69
NtRp2979
(dp2980
g72
(dp2981
g99
g100
ssg81
g2970
sg74
(lp2982
S':'
asbag67
(g88
g69
NtRp2983
(dp2984
g72
(dp2985
sg81
g2970
sg74
(lp2986
g67
(g68
g69
NtRp2987
(dp2988
g72
(dp2989
g80
I3
ssg81
g2983
sg74
(lp2990
g1710
asbasbasbag67
(g83
g69
NtRp2991
(dp2992
g72
(dp2993
sg81
g2459
sg74
(lp2994
g67
(g88
g69
NtRp2995
(dp2996
g72
(dp2997
g92
g93
ssg81
g2991
sg74
(lp2998
S'wsgi.run_once'
p2999
asbag67
(g88
g69
NtRp3000
(dp3001
g72
(dp3002
g99
g100
ssg81
g2991
sg74
(lp3003
S':'
asbag67
(g88
g69
NtRp3004
(dp3005
g72
(dp3006
sg81
g2991
sg74
(lp3007
g67
(g68
g69
NtRp3008
(dp3009
g72
(dp3010
g80
I3
ssg81
g3004
sg74
(lp3011
g110
asbasbasbag67
(g83
g69
NtRp3012
(dp3013
g72
(dp3014
sg81
g2459
sg74
(lp3015
g67
(g88
g69
NtRp3016
(dp3017
g72
(dp3018
g92
g93
ssg81
g3012
sg74
(lp3019
S'wsgi.url_scheme'
p3020
asbag67
(g88
g69
NtRp3021
(dp3022
g72
(dp3023
g99
g100
ssg81
g3012
sg74
(lp3024
S':'
asbag67
(g88
g69
NtRp3025
(dp3026
g72
(dp3027
sg81
g3012
sg74
(lp3028
g67
(g68
g69
NtRp3029
(dp3030
g72
(dp3031
g80
I3
ssg81
g3025
sg74
(lp3032
g1753
asbasbasbag67
(g83
g69
NtRp3033
(dp3034
g72
(dp3035
sg81
g2459
sg74
(lp3036
g67
(g88
g69
NtRp3037
(dp3038
g72
(dp3039
g92
g93
ssg81
g3033
sg74
(lp3040
S'wsgi.version'
p3041
asbag67
(g88
g69
NtRp3042
(dp3043
g72
(dp3044
g99
g100
ssg81
g3033
sg74
(lp3045
S':'
asbag67
(g88
g69
NtRp3046
(dp3047
g72
(dp3048
sg81
g3033
sg74
(lp3049
g67
(g68
g69
NtRp3050
(dp3051
g72
(dp3052
g80
I3
ssg81
g3046
sg74
(lp3053
S'1'
asbasbasbasbasbasbasbasbasbasbasbasbasbsS'frames'
p3054
(lp3055
(dp3056
S'file'
p3057
S'/media/Windows/Users/Tushar/Education/IIIT/3rd_Year/2nd Sem/BTP/Project/web2py/gluon/restricted.py'
p3058
sS'dump'
p3059
(dp3060
S'code'
p3061
S'\'response.files.append(URL(\\\'static\\\',"css/contact....\\\'\\\\n    </div>\\\\n</body>\\\\n</html>\\\\n\\\', escape=False)\''
p3062
sS'layer'
p3063
S"'/media/Windows/Users/Tushar/Education/IIIT/3rd_Y...pplications/whiteboard/views/default/contact.html'"
p3064
sS'global compile2'
p3065
S'<function compile2>'
p3066
sS'ccode'
p3067
S'undefined'
p3068
ssS'lnum'
p3069
I204
sS'lines'
p3070
(dp3071
I199
S"    environment['__name__'] = '__restricted__'"
p3072
sI200
S'    try:'
p3073
sI201
S'        if type(code) == types.CodeType:'
p3074
sI202
S'            ccode = code'
p3075
sI203
S'        else:'
p3076
sI204
S'            ccode = compile2(code,layer)'
p3077
sI205
S'        exec ccode in environment'
p3078
sI206
S'    except HTTP:'
p3079
sI207
S'        raise'
p3080
sI208
S'    except RestrictedError:'
p3081
ssS'call'
p3082
S'(code=\'response.files.append(URL(\\\'static\\\',"css/contact....\\\'\\\\n    </div>\\\\n</body>\\\\n</html>\\\\n\\\', escape=False)\', environment={\'A\': <class \'gluon.html.A\'>, \'Auth\': <class \'gluon.tools.Auth\'>, \'B\': <class \'gluon.html.B\'>, \'BEAUTIFY\': <class \'gluon.html.BEAUTIFY\'>, \'BODY\': <class \'gluon.html.BODY\'>, \'BR\': <class \'gluon.html.BR\'>, \'BUTTON\': <class \'gluon.html.BUTTON\'>, \'CAT\': <class \'gluon.html.CAT\'>, \'CENTER\': <class \'gluon.html.CENTER\'>, \'CLEANUP\': <class \'gluon.validators.CLEANUP\'>, ...}, layer=\'/media/Windows/Users/Tushar/Education/IIIT/3rd_Y...pplications/whiteboard/views/default/contact.html\')'
p3083
sS'func'
p3084
S'restricted'
p3085
sa(dp3086
g3057
S'/media/Windows/Users/Tushar/Education/IIIT/3rd_Year/2nd Sem/BTP/Project/web2py/gluon/restricted.py'
p3087
sg3059
(dp3088
S'builtincompile'
p3089
S'<built-in function compile>'
p3090
sS'code'
p3091
S'\'response.files.append(URL(\\\'static\\\',"css/contact....\\\'\\\\n    </div>\\\\n</body>\\\\n</html>\\\\n\\\', escape=False)\''
p3092
sS'code.rstrip'
p3093
S'<built-in method rstrip of str object>'
p3094
sS').replace'
p3095
g3068
sS'layer'
p3096
S"'/media/Windows/Users/Tushar/Education/IIIT/3rd_Y...pplications/whiteboard/views/default/contact.html'"
p3097
ssg3069
I189
sg3070
(dp3098
I192
S'    """'
p3099
sI193
S'    runs code in environment and returns the output. if an exception occurs'
p3100
sI184
S''
sI185
S'def compile2(code,layer):'
p3101
sI186
S'    """'
p3102
sI187
S"    The +'\\n' is necessary else compile fails when code ends in a comment."
p3103
sI188
S'    """'
p3104
sI189
S"    return compile(code.rstrip().replace('\\r\\n','\\n')+'\\n', layer, 'exec')"
p3105
sI190
S''
sI191
S"def restricted(code, environment=None, layer='Unknown'):"
p3106
ssg3082
S'(code=\'response.files.append(URL(\\\'static\\\',"css/contact....\\\'\\\\n    </div>\\\\n</body>\\\\n</html>\\\\n\\\', escape=False)\', layer=\'/media/Windows/Users/Tushar/Education/IIIT/3rd_Y...pplications/whiteboard/views/default/contact.html\')'
p3107
sg3084
S'compile2'
p3108
sasS'pyver'
p3109
S'Python 2.6.6: /usr/bin/python'
p3110
sS'session'
p3111
g67
(g68
g69
NtRp3112
(dp3113
g72
(dp3114
sg74
(lp3115
g67
(g76
g69
NtRp3116
(dp3117
g72
(dp3118
g80
I5
ssg81
Nsg74
(lp3119
g67
(g83
g69
NtRp3120
(dp3121
g72
(dp3122
sg81
g3116
sg74
(lp3123
g67
(g88
g69
NtRp3124
(dp3125
g72
(dp3126
g92
g93
ssg81
g3120
sg74
(lp3127
S'flash'
p3128
asbag67
(g88
g69
NtRp3129
(dp3130
g72
(dp3131
g99
g100
ssg81
g3120
sg74
(lp3132
S':'
asbag67
(g88
g69
NtRp3133
(dp3134
g72
(dp3135
sg81
g3120
sg74
(lp3136
g67
(g68
g69
NtRp3137
(dp3138
g72
(dp3139
g80
I5
ssg81
g3133
sg74
(lp3140
S''
asbasbasbasbasbsS'etype'
p3141
S"<type 'exceptions.SyntaxError'>"
p3142
sS'date'
p3143
S'Fri Mar 23 10:20:38 2012'
p3144
sS'response'
p3145
g67
(g68
g69
NtRp3146
(dp3147
g72
(dp3148
sg74
(lp3149
g67
(g76
g69
NtRp3150
(dp3151
g72
(dp3152
g80
I5
ssg81
Nsg74
(lp3153
g67
(g83
g69
NtRp3154
(dp3155
g72
(dp3156
sg81
g3150
sg74
(lp3157
g67
(g88
g69
NtRp3158
(dp3159
g72
(dp3160
g92
g93
ssg81
g3154
sg74
(lp3161
g165
asbag67
(g88
g69
NtRp3162
(dp3163
g72
(dp3164
g99
g100
ssg81
g3154
sg74
(lp3165
S':'
asbag67
(g88
g69
NtRp3166
(dp3167
g72
(dp3168
sg81
g3154
sg74
(lp3169
g67
(g68
g69
NtRp3170
(dp3171
g72
(dp3172
g80
I5
ssg81
g3166
sg74
(lp3173
S'<cStringIO.StringO object at 0x8f7f560>'
p3174
asbasbasbag67
(g83
g69
NtRp3175
(dp3176
g72
(dp3177
sg81
g3150
sg74
(lp3178
g67
(g88
g69
NtRp3179
(dp3180
g72
(dp3181
g92
g93
ssg81
g3175
sg74
(lp3182
g231
asbag67
(g88
g69
NtRp3183
(dp3184
g72
(dp3185
g99
g100
ssg81
g3175
sg74
(lp3186
S':'
asbag67
(g88
g69
NtRp3187
(dp3188
g72
(dp3189
sg81
g3175
sg74
(lp3190
g67
(g68
g69
NtRp3191
(dp3192
g72
(dp3193
g80
I5
ssg81
g3187
sg74
(lp3194
g67
(g76
g69
NtRp3195
(dp3196
g72
(dp3197
g80
I4
ssg81
Nsg74
(lp3198
g67
(g83
g69
NtRp3199
(dp3200
g72
(dp3201
sg81
g3195
sg74
(lp3202
g67
(g88
g69
NtRp3203
(dp3204
g72
(dp3205
g92
g93
ssg81
g3199
sg74
(lp3206
S'session_id_whiteboard'
p3207
asbag67
(g88
g69
NtRp3208
(dp3209
g72
(dp3210
g99
g100
ssg81
g3199
sg74
(lp3211
S':'
asbag67
(g88
g69
NtRp3212
(dp3213
g72
(dp3214
sg81
g3199
sg74
(lp3215
g67
(g68
g69
NtRp3216
(dp3217
g72
(dp3218
g80
I4
ssg81
g3212
sg74
(lp3219
g67
(g76
g69
NtRp3220
(dp3221
g72
(dp3222
g80
I3
ssg81
Nsg74
(lp3223
g67
(g83
g69
NtRp3224
(dp3225
g72
(dp3226
sg81
g3220
sg74
(lp3227
g67
(g88
g69
NtRp3228
(dp3229
g72
(dp3230
g92
g93
ssg81
g3224
sg74
(lp3231
g281
asbag67
(g88
g69
NtRp3232
(dp3233
g72
(dp3234
g99
g100
ssg81
g3224
sg74
(lp3235
S':'
asbag67
(g88
g69
NtRp3236
(dp3237
g72
(dp3238
sg81
g3224
sg74
(lp3239
g67
(g68
g69
NtRp3240
(dp3241
g72
(dp3242
g80
I3
ssg81
g3236
sg74
(lp3243
S''
asbasbasbag67
(g83
g69
NtRp3244
(dp3245
g72
(dp3246
sg81
g3220
sg74
(lp3247
g67
(g88
g69
NtRp3248
(dp3249
g72
(dp3250
g92
g93
ssg81
g3244
sg74
(lp3251
g302
asbag67
(g88
g69
NtRp3252
(dp3253
g72
(dp3254
g99
g100
ssg81
g3244
sg74
(lp3255
S':'
asbag67
(g88
g69
NtRp3256
(dp3257
g72
(dp3258
sg81
g3244
sg74
(lp3259
g67
(g68
g69
NtRp3260
(dp3261
g72
(dp3262
g80
I3
ssg81
g3256
sg74
(lp3263
S''
asbasbasbag67
(g83
g69
NtRp3264
(dp3265
g72
(dp3266
sg81
g3220
sg74
(lp3267
g67
(g88
g69
NtRp3268
(dp3269
g72
(dp3270
g92
g93
ssg81
g3264
sg74
(lp3271
g323
asbag67
(g88
g69
NtRp3272
(dp3273
g72
(dp3274
g99
g100
ssg81
g3264
sg74
(lp3275
S':'
asbag67
(g88
g69
NtRp3276
(dp3277
g72
(dp3278
sg81
g3264
sg74
(lp3279
g67
(g68
g69
NtRp3280
(dp3281
g72
(dp3282
g80
I3
ssg81
g3276
sg74
(lp3283
S''
asbasbasbag67
(g83
g69
NtRp3284
(dp3285
g72
(dp3286
sg81
g3220
sg74
(lp3287
g67
(g88
g69
NtRp3288
(dp3289
g72
(dp3290
g92
g93
ssg81
g3284
sg74
(lp3291
g344
asbag67
(g88
g69
NtRp3292
(dp3293
g72
(dp3294
g99
g100
ssg81
g3284
sg74
(lp3295
S':'
asbag67
(g88
g69
NtRp3296
(dp3297
g72
(dp3298
sg81
g3284
sg74
(lp3299
g67
(g68
g69
NtRp3300
(dp3301
g72
(dp3302
g80
I3
ssg81
g3296
sg74
(lp3303
S''
asbasbasbag67
(g83
g69
NtRp3304
(dp3305
g72
(dp3306
sg81
g3220
sg74
(lp3307
g67
(g88
g69
NtRp3308
(dp3309
g72
(dp3310
g92
g93
ssg81
g3304
sg74
(lp3311
g365
asbag67
(g88
g69
NtRp3312
(dp3313
g72
(dp3314
g99
g100
ssg81
g3304
sg74
(lp3315
S':'
asbag67
(g88
g69
NtRp3316
(dp3317
g72
(dp3318
sg81
g3304
sg74
(lp3319
g67
(g68
g69
NtRp3320
(dp3321
g72
(dp3322
g80
I3
ssg81
g3316
sg74
(lp3323
S''
asbasbasbag67
(g83
g69
NtRp3324
(dp3325
g72
(dp3326
sg81
g3220
sg74
(lp3327
g67
(g88
g69
NtRp3328
(dp3329
g72
(dp3330
g92
g93
ssg81
g3324
sg74
(lp3331
g386
asbag67
(g88
g69
NtRp3332
(dp3333
g72
(dp3334
g99
g100
ssg81
g3324
sg74
(lp3335
S':'
asbag67
(g88
g69
NtRp3336
(dp3337
g72
(dp3338
sg81
g3324
sg74
(lp3339
g67
(g68
g69
NtRp3340
(dp3341
g72
(dp3342
g80
I3
ssg81
g3336
sg74
(lp3343
S'/'
asbasbasbag67
(g83
g69
NtRp3344
(dp3345
g72
(dp3346
sg81
g3220
sg74
(lp3347
g67
(g88
g69
NtRp3348
(dp3349
g72
(dp3350
g92
g93
ssg81
g3344
sg74
(lp3351
g407
asbag67
(g88
g69
NtRp3352
(dp3353
g72
(dp3354
g99
g100
ssg81
g3344
sg74
(lp3355
S':'
asbag67
(g88
g69
NtRp3356
(dp3357
g72
(dp3358
sg81
g3344
sg74
(lp3359
g67
(g68
g69
NtRp3360
(dp3361
g72
(dp3362
g80
I3
ssg81
g3356
sg74
(lp3363
S''
asbasbasbag67
(g83
g69
NtRp3364
(dp3365
g72
(dp3366
sg81
g3220
sg74
(lp3367
g67
(g88
g69
NtRp3368
(dp3369
g72
(dp3370
g92
g93
ssg81
g3364
sg74
(lp3371
g428
asbag67
(g88
g69
NtRp3372
(dp3373
g72
(dp3374
g99
g100
ssg81
g3364
sg74
(lp3375
S':'
asbag67
(g88
g69
NtRp3376
(dp3377
g72
(dp3378
sg81
g3364
sg74
(lp3379
g67
(g68
g69
NtRp3380
(dp3381
g72
(dp3382
g80
I3
ssg81
g3376
sg74
(lp3383
S''
asbasbasbasbasbasbasbasbasbasbasbag67
(g83
g69
NtRp3384
(dp3385
g72
(dp3386
sg81
g3150
sg74
(lp3387
g67
(g88
g69
NtRp3388
(dp3389
g72
(dp3390
g92
g93
ssg81
g3384
sg74
(lp3391
S'delimiters'
p3392
asbag67
(g88
g69
NtRp3393
(dp3394
g72
(dp3395
g99
g100
ssg81
g3384
sg74
(lp3396
S':'
asbag67
(g88
g69
NtRp3397
(dp3398
g72
(dp3399
sg81
g3384
sg74
(lp3400
g67
(g68
g69
NtRp3401
(dp3402
g72
(dp3403
g80
I5
ssg81
g3397
sg74
(lp3404
g67
(g76
g69
NtRp3405
(dp3406
g72
(dp3407
g80
I4
ssg81
Nsg74
(lp3408
g67
(g83
g69
NtRp3409
(dp3410
g72
(dp3411
sg81
g3405
sg74
(lp3412
g67
(g88
g69
NtRp3413
(dp3414
g72
(dp3415
sg81
g3409
sg74
(lp3416
g67
(g68
g69
NtRp3417
(dp3418
g72
(dp3419
g80
I4
ssg81
g3413
sg74
(lp3420
S'{{'
p3421
asbasbasbag67
(g83
g69
NtRp3422
(dp3423
g72
(dp3424
sg81
g3405
sg74
(lp3425
g67
(g88
g69
NtRp3426
(dp3427
g72
(dp3428
sg81
g3422
sg74
(lp3429
g67
(g68
g69
NtRp3430
(dp3431
g72
(dp3432
g80
I4
ssg81
g3426
sg74
(lp3433
S'}}'
p3434
asbasbasbasbasbasbasbag67
(g83
g69
NtRp3435
(dp3436
g72
(dp3437
sg81
g3150
sg74
(lp3438
g67
(g88
g69
NtRp3439
(dp3440
g72
(dp3441
g92
g93
ssg81
g3435
sg74
(lp3442
S'files'
p3443
asbag67
(g88
g69
NtRp3444
(dp3445
g72
(dp3446
g99
g100
ssg81
g3435
sg74
(lp3447
S':'
asbag67
(g88
g69
NtRp3448
(dp3449
g72
(dp3450
sg81
g3435
sg74
(lp3451
g67
(g68
g69
NtRp3452
(dp3453
g72
(dp3454
g80
I5
ssg81
g3448
sg74
(lp3455
g67
(g76
g69
NtRp3456
(dp3457
g72
(dp3458
g80
I4
ssg81
Nsg74
(lp3459
sbasbasbasbag67
(g83
g69
NtRp3460
(dp3461
g72
(dp3462
sg81
g3150
sg74
(lp3463
g67
(g88
g69
NtRp3464
(dp3465
g72
(dp3466
g92
g93
ssg81
g3460
sg74
(lp3467
S'flash'
p3468
asbag67
(g88
g69
NtRp3469
(dp3470
g72
(dp3471
g99
g100
ssg81
g3460
sg74
(lp3472
S':'
asbag67
(g88
g69
NtRp3473
(dp3474
g72
(dp3475
sg81
g3460
sg74
(lp3476
g67
(g68
g69
NtRp3477
(dp3478
g72
(dp3479
g80
I5
ssg81
g3473
sg74
(lp3480
S''
asbasbasbag67
(g83
g69
NtRp3481
(dp3482
g72
(dp3483
sg81
g3150
sg74
(lp3484
g67
(g88
g69
NtRp3485
(dp3486
g72
(dp3487
g92
g93
ssg81
g3481
sg74
(lp3488
S'generic_patterns'
p3489
asbag67
(g88
g69
NtRp3490
(dp3491
g72
(dp3492
g99
g100
ssg81
g3481
sg74
(lp3493
S':'
asbag67
(g88
g69
NtRp3494
(dp3495
g72
(dp3496
sg81
g3481
sg74
(lp3497
g67
(g68
g69
NtRp3498
(dp3499
g72
(dp3500
g80
I5
ssg81
g3494
sg74
(lp3501
g67
(g76
g69
NtRp3502
(dp3503
g72
(dp3504
g80
I4
ssg81
Nsg74
(lp3505
g67
(g83
g69
NtRp3506
(dp3507
g72
(dp3508
sg81
g3502
sg74
(lp3509
g67
(g88
g69
NtRp3510
(dp3511
g72
(dp3512
sg81
g3506
sg74
(lp3513
g67
(g68
g69
NtRp3514
(dp3515
g72
(dp3516
g80
I4
ssg81
g3510
sg74
(lp3517
S'*'
asbasbasbasbasbasbasbag67
(g83
g69
NtRp3518
(dp3519
g72
(dp3520
sg81
g3150
sg74
(lp3521
g67
(g88
g69
NtRp3522
(dp3523
g72
(dp3524
g92
g93
ssg81
g3518
sg74
(lp3525
S'headers'
p3526
asbag67
(g88
g69
NtRp3527
(dp3528
g72
(dp3529
g99
g100
ssg81
g3518
sg74
(lp3530
S':'
asbag67
(g88
g69
NtRp3531
(dp3532
g72
(dp3533
sg81
g3518
sg74
(lp3534
g67
(g68
g69
NtRp3535
(dp3536
g72
(dp3537
g80
I5
ssg81
g3531
sg74
(lp3538
g67
(g76
g69
NtRp3539
(dp3540
g72
(dp3541
g80
I4
ssg81
Nsg74
(lp3542
g67
(g83
g69
NtRp3543
(dp3544
g72
(dp3545
sg81
g3539
sg74
(lp3546
g67
(g88
g69
NtRp3547
(dp3548
g72
(dp3549
g92
g93
ssg81
g3543
sg74
(lp3550
S'Cache-Control'
p3551
asbag67
(g88
g69
NtRp3552
(dp3553
g72
(dp3554
g99
g100
ssg81
g3543
sg74
(lp3555
S':'
asbag67
(g88
g69
NtRp3556
(dp3557
g72
(dp3558
sg81
g3543
sg74
(lp3559
g67
(g68
g69
NtRp3560
(dp3561
g72
(dp3562
g80
I4
ssg81
g3556
sg74
(lp3563
S'no-store, no-cache, must-revalidate, post-check=0, pre-check=0'
p3564
asbasbasbag67
(g83
g69
NtRp3565
(dp3566
g72
(dp3567
sg81
g3539
sg74
(lp3568
g67
(g88
g69
NtRp3569
(dp3570
g72
(dp3571
g92
g93
ssg81
g3565
sg74
(lp3572
S'Content-Type'
p3573
asbag67
(g88
g69
NtRp3574
(dp3575
g72
(dp3576
g99
g100
ssg81
g3565
sg74
(lp3577
S':'
asbag67
(g88
g69
NtRp3578
(dp3579
g72
(dp3580
sg81
g3565
sg74
(lp3581
g67
(g68
g69
NtRp3582
(dp3583
g72
(dp3584
g80
I4
ssg81
g3578
sg74
(lp3585
S'text/html; charset=utf-8'
p3586
asbasbasbag67
(g83
g69
NtRp3587
(dp3588
g72
(dp3589
sg81
g3539
sg74
(lp3590
g67
(g88
g69
NtRp3591
(dp3592
g72
(dp3593
g92
g93
ssg81
g3587
sg74
(lp3594
S'Expires'
p3595
asbag67
(g88
g69
NtRp3596
(dp3597
g72
(dp3598
g99
g100
ssg81
g3587
sg74
(lp3599
S':'
asbag67
(g88
g69
NtRp3600
(dp3601
g72
(dp3602
sg81
g3587
sg74
(lp3603
g67
(g68
g69
NtRp3604
(dp3605
g72
(dp3606
g80
I4
ssg81
g3600
sg74
(lp3607
S'Fri, 23 Mar 2012 04:50:38 GMT'
p3608
asbasbasbag67
(g83
g69
NtRp3609
(dp3610
g72
(dp3611
sg81
g3539
sg74
(lp3612
g67
(g88
g69
NtRp3613
(dp3614
g72
(dp3615
g92
g93
ssg81
g3609
sg74
(lp3616
S'Pragma'
p3617
asbag67
(g88
g69
NtRp3618
(dp3619
g72
(dp3620
g99
g100
ssg81
g3609
sg74
(lp3621
S':'
asbag67
(g88
g69
NtRp3622
(dp3623
g72
(dp3624
sg81
g3609
sg74
(lp3625
g67
(g68
g69
NtRp3626
(dp3627
g72
(dp3628
g80
I4
ssg81
g3622
sg74
(lp3629
S'no-cache'
p3630
asbasbasbag67
(g83
g69
NtRp3631
(dp3632
g72
(dp3633
sg81
g3539
sg74
(lp3634
g67
(g88
g69
NtRp3635
(dp3636
g72
(dp3637
g92
g93
ssg81
g3631
sg74
(lp3638
S'X-Powered-By'
p3639
asbag67
(g88
g69
NtRp3640
(dp3641
g72
(dp3642
g99
g100
ssg81
g3631
sg74
(lp3643
S':'
asbag67
(g88
g69
NtRp3644
(dp3645
g72
(dp3646
sg81
g3631
sg74
(lp3647
g67
(g68
g69
NtRp3648
(dp3649
g72
(dp3650
g80
I4
ssg81
g3644
sg74
(lp3651
S'web2py'
p3652
asbasbasbasbasbasbasbag67
(g83
g69
NtRp3653
(dp3654
g72
(dp3655
sg81
g3150
sg74
(lp3656
g67
(g88
g69
NtRp3657
(dp3658
g72
(dp3659
g92
g93
ssg81
g3653
sg74
(lp3660
S'menu'
p3661
asbag67
(g88
g69
NtRp3662
(dp3663
g72
(dp3664
g99
g100
ssg81
g3653
sg74
(lp3665
S':'
asbag67
(g88
g69
NtRp3666
(dp3667
g72
(dp3668
sg81
g3653
sg74
(lp3669
g67
(g68
g69
NtRp3670
(dp3671
g72
(dp3672
g80
I5
ssg81
g3666
sg74
(lp3673
g67
(g76
g69
NtRp3674
(dp3675
g72
(dp3676
g80
I4
ssg81
Nsg74
(lp3677
sbasbasbasbag67
(g83
g69
NtRp3678
(dp3679
g72
(dp3680
sg81
g3150
sg74
(lp3681
g67
(g88
g69
NtRp3682
(dp3683
g72
(dp3684
g92
g93
ssg81
g3678
sg74
(lp3685
S'meta'
p3686
asbag67
(g88
g69
NtRp3687
(dp3688
g72
(dp3689
g99
g100
ssg81
g3678
sg74
(lp3690
S':'
asbag67
(g88
g69
NtRp3691
(dp3692
g72
(dp3693
sg81
g3678
sg74
(lp3694
g67
(g68
g69
NtRp3695
(dp3696
g72
(dp3697
g80
I5
ssg81
g3691
sg74
(lp3698
g67
(g76
g69
NtRp3699
(dp3700
g72
(dp3701
g80
I4
ssg81
Nsg74
(lp3702
g67
(g83
g69
NtRp3703
(dp3704
g72
(dp3705
sg81
g3699
sg74
(lp3706
g67
(g88
g69
NtRp3707
(dp3708
g72
(dp3709
g92
g93
ssg81
g3703
sg74
(lp3710
S'author'
p3711
asbag67
(g88
g69
NtRp3712
(dp3713
g72
(dp3714
g99
g100
ssg81
g3703
sg74
(lp3715
S':'
asbag67
(g88
g69
NtRp3716
(dp3717
g72
(dp3718
sg81
g3703
sg74
(lp3719
g67
(g68
g69
NtRp3720
(dp3721
g72
(dp3722
g80
I4
ssg81
g3716
sg74
(lp3723
S'Tushar Chandra <tusharchandra1992@gmail.com>'
p3724
asbasbasbag67
(g83
g69
NtRp3725
(dp3726
g72
(dp3727
sg81
g3699
sg74
(lp3728
g67
(g88
g69
NtRp3729
(dp3730
g72
(dp3731
g92
g93
ssg81
g3725
sg74
(lp3732
S'copyright'
p3733
asbag67
(g88
g69
NtRp3734
(dp3735
g72
(dp3736
g99
g100
ssg81
g3725
sg74
(lp3737
S':'
asbag67
(g88
g69
NtRp3738
(dp3739
g72
(dp3740
sg81
g3725
sg74
(lp3741
g67
(g68
g69
NtRp3742
(dp3743
g72
(dp3744
g80
I4
ssg81
g3738
sg74
(lp3745
S'Copyright 2012'
p3746
asbasbasbag67
(g83
g69
NtRp3747
(dp3748
g72
(dp3749
sg81
g3699
sg74
(lp3750
g67
(g88
g69
NtRp3751
(dp3752
g72
(dp3753
g92
g93
ssg81
g3747
sg74
(lp3754
S'description'
p3755
asbag67
(g88
g69
NtRp3756
(dp3757
g72
(dp3758
g99
g100
ssg81
g3747
sg74
(lp3759
S':'
asbag67
(g88
g69
NtRp3760
(dp3761
g72
(dp3762
sg81
g3747
sg74
(lp3763
g67
(g68
g69
NtRp3764
(dp3765
g72
(dp3766
g80
I4
ssg81
g3760
sg74
(lp3767
S'Collaborative Whiteboard'
p3768
asbasbasbag67
(g83
g69
NtRp3769
(dp3770
g72
(dp3771
sg81
g3699
sg74
(lp3772
g67
(g88
g69
NtRp3773
(dp3774
g72
(dp3775
g92
g93
ssg81
g3769
sg74
(lp3776
S'generator'
p3777
asbag67
(g88
g69
NtRp3778
(dp3779
g72
(dp3780
g99
g100
ssg81
g3769
sg74
(lp3781
S':'
asbag67
(g88
g69
NtRp3782
(dp3783
g72
(dp3784
sg81
g3769
sg74
(lp3785
g67
(g68
g69
NtRp3786
(dp3787
g72
(dp3788
g80
I4
ssg81
g3782
sg74
(lp3789
S'Web2py Web Framework'
p3790
asbasbasbag67
(g83
g69
NtRp3791
(dp3792
g72
(dp3793
sg81
g3699
sg74
(lp3794
g67
(g88
g69
NtRp3795
(dp3796
g72
(dp3797
g92
g93
ssg81
g3791
sg74
(lp3798
S'keywords'
p3799
asbag67
(g88
g69
NtRp3800
(dp3801
g72
(dp3802
g99
g100
ssg81
g3791
sg74
(lp3803
S':'
asbag67
(g88
g69
NtRp3804
(dp3805
g72
(dp3806
sg81
g3791
sg74
(lp3807
g67
(g68
g69
NtRp3808
(dp3809
g72
(dp3810
g80
I4
ssg81
g3804
sg74
(lp3811
S'paint, multiple, users, collaborative, canvas'
p3812
asbasbasbasbasbasbasbag67
(g83
g69
NtRp3813
(dp3814
g72
(dp3815
sg81
g3150
sg74
(lp3816
g67
(g88
g69
NtRp3817
(dp3818
g72
(dp3819
g92
g93
ssg81
g3813
sg74
(lp3820
S'postprocessing'
p3821
asbag67
(g88
g69
NtRp3822
(dp3823
g72
(dp3824
g99
g100
ssg81
g3813
sg74
(lp3825
S':'
asbag67
(g88
g69
NtRp3826
(dp3827
g72
(dp3828
sg81
g3813
sg74
(lp3829
g67
(g68
g69
NtRp3830
(dp3831
g72
(dp3832
g80
I5
ssg81
g3826
sg74
(lp3833
g67
(g76
g69
NtRp3834
(dp3835
g72
(dp3836
g80
I4
ssg81
Nsg74
(lp3837
sbasbasbasbag67
(g83
g69
NtRp3838
(dp3839
g72
(dp3840
sg81
g3150
sg74
(lp3841
g67
(g88
g69
NtRp3842
(dp3843
g72
(dp3844
g92
g93
ssg81
g3838
sg74
(lp3845
S'session_file'
p3846
asbag67
(g88
g69
NtRp3847
(dp3848
g72
(dp3849
g99
g100
ssg81
g3838
sg74
(lp3850
S':'
asbag67
(g88
g69
NtRp3851
(dp3852
g72
(dp3853
sg81
g3838
sg74
(lp3854
g67
(g68
g69
NtRp3855
(dp3856
g72
(dp3857
g80
I5
ssg81
g3851
sg74
(lp3858
S"<open file '/media/Windows/Users/Tushar/Education/IIIT/3rd_Year/2nd Sem/BTP/Project/web2py/applications/whiteboard/sessions/10.1.36.150-86d2f65c-db1a-4f1d-b060-33bbf35e6604', mode 'rb+' at 0x901cd88>"
p3859
asbasbasbag67
(g83
g69
NtRp3860
(dp3861
g72
(dp3862
sg81
g3150
sg74
(lp3863
g67
(g88
g69
NtRp3864
(dp3865
g72
(dp3866
g92
g93
ssg81
g3860
sg74
(lp3867
S'session_filename'
p3868
asbag67
(g88
g69
NtRp3869
(dp3870
g72
(dp3871
g99
g100
ssg81
g3860
sg74
(lp3872
S':'
asbag67
(g88
g69
NtRp3873
(dp3874
g72
(dp3875
sg81
g3860
sg74
(lp3876
g67
(g68
g69
NtRp3877
(dp3878
g72
(dp3879
g80
I5
ssg81
g3873
sg74
(lp3880
S'/media/Windows/Users/Tushar/Education/IIIT/3rd_Year/2nd Sem/BTP/Project/web2py/applications/whiteboard/sessions/10.1.36.150-86d2f65c-db1a-4f1d-b060-33bbf35e6604'
p3881
asbasbasbag67
(g83
g69
NtRp3882
(dp3883
g72
(dp3884
sg81
g3150
sg74
(lp3885
g67
(g88
g69
NtRp3886
(dp3887
g72
(dp3888
g92
g93
ssg81
g3882
sg74
(lp3889
S'session_id'
p3890
asbag67
(g88
g69
NtRp3891
(dp3892
g72
(dp3893
g99
g100
ssg81
g3882
sg74
(lp3894
S':'
asbag67
(g88
g69
NtRp3895
(dp3896
g72
(dp3897
sg81
g3882
sg74
(lp3898
g67
(g68
g69
NtRp3899
(dp3900
g72
(dp3901
g80
I5
ssg81
g3895
sg74
(lp3902
S'10.1.36.150-86d2f65c-db1a-4f1d-b060-33bbf35e6604'
p3903
asbasbasbag67
(g83
g69
NtRp3904
(dp3905
g72
(dp3906
sg81
g3150
sg74
(lp3907
g67
(g88
g69
NtRp3908
(dp3909
g72
(dp3910
g92
g93
ssg81
g3904
sg74
(lp3911
S'session_id_name'
p3912
asbag67
(g88
g69
NtRp3913
(dp3914
g72
(dp3915
g99
g100
ssg81
g3904
sg74
(lp3916
S':'
asbag67
(g88
g69
NtRp3917
(dp3918
g72
(dp3919
sg81
g3904
sg74
(lp3920
g67
(g68
g69
NtRp3921
(dp3922
g72
(dp3923
g80
I5
ssg81
g3917
sg74
(lp3924
g3207
asbasbasbag67
(g83
g69
NtRp3925
(dp3926
g72
(dp3927
sg81
g3150
sg74
(lp3928
g67
(g88
g69
NtRp3929
(dp3930
g72
(dp3931
g92
g93
ssg81
g3925
sg74
(lp3932
S'session_locked'
p3933
asbag67
(g88
g69
NtRp3934
(dp3935
g72
(dp3936
g99
g100
ssg81
g3925
sg74
(lp3937
S':'
asbag67
(g88
g69
NtRp3938
(dp3939
g72
(dp3940
sg81
g3925
sg74
(lp3941
g67
(g68
g69
NtRp3942
(dp3943
g72
(dp3944
g80
I5
ssg81
g3938
sg74
(lp3945
g1710
asbasbasbag67
(g83
g69
NtRp3946
(dp3947
g72
(dp3948
sg81
g3150
sg74
(lp3949
g67
(g88
g69
NtRp3950
(dp3951
g72
(dp3952
g92
g93
ssg81
g3946
sg74
(lp3953
S'session_new'
p3954
asbag67
(g88
g69
NtRp3955
(dp3956
g72
(dp3957
g99
g100
ssg81
g3946
sg74
(lp3958
S':'
asbag67
(g88
g69
NtRp3959
(dp3960
g72
(dp3961
sg81
g3946
sg74
(lp3962
g67
(g68
g69
NtRp3963
(dp3964
g72
(dp3965
g80
I5
ssg81
g3959
sg74
(lp3966
g110
asbasbasbag67
(g83
g69
NtRp3967
(dp3968
g72
(dp3969
sg81
g3150
sg74
(lp3970
g67
(g88
g69
NtRp3971
(dp3972
g72
(dp3973
g92
g93
ssg81
g3967
sg74
(lp3974
S'status'
p3975
asbag67
(g88
g69
NtRp3976
(dp3977
g72
(dp3978
g99
g100
ssg81
g3967
sg74
(lp3979
S':'
asbag67
(g88
g69
NtRp3980
(dp3981
g72
(dp3982
sg81
g3967
sg74
(lp3983
g67
(g68
g69
NtRp3984
(dp3985
g72
(dp3986
g80
I5
ssg81
g3980
sg74
(lp3987
S'200'
p3988
asbasbasbag67
(g83
g69
NtRp3989
(dp3990
g72
(dp3991
sg81
g3150
sg74
(lp3992
g67
(g88
g69
NtRp3993
(dp3994
g72
(dp3995
g92
g93
ssg81
g3989
sg74
(lp3996
S'title'
p3997
asbag67
(g88
g69
NtRp3998
(dp3999
g72
(dp4000
g99
g100
ssg81
g3989
sg74
(lp4001
S':'
asbag67
(g88
g69
NtRp4002
(dp4003
g72
(dp4004
sg81
g3989
sg74
(lp4005
g67
(g68
g69
NtRp4006
(dp4007
g72
(dp4008
g80
I5
ssg81
g4002
sg74
(lp4009
S'Whiteboard'
p4010
asbasbasbag67
(g83
g69
NtRp4011
(dp4012
g72
(dp4013
sg81
g3150
sg74
(lp4014
g67
(g88
g69
NtRp4015
(dp4016
g72
(dp4017
g92
g93
ssg81
g4011
sg74
(lp4018
g2374
asbag67
(g88
g69
NtRp4019
(dp4020
g72
(dp4021
g99
g100
ssg81
g4011
sg74
(lp4022
S':'
asbag67
(g88
g69
NtRp4023
(dp4024
g72
(dp4025
sg81
g4011
sg74
(lp4026
g67
(g68
g69
NtRp4027
(dp4028
g72
(dp4029
g80
I5
ssg81
g4023
sg74
(lp4030
g2387
asbasbasbag67
(g83
g69
NtRp4031
(dp4032
g72
(dp4033
sg81
g3150
sg74
(lp4034
g67
(g88
g69
NtRp4035
(dp4036
g72
(dp4037
g92
g93
ssg81
g4031
sg74
(lp4038
S'view'
p4039
asbag67
(g88
g69
NtRp4040
(dp4041
g72
(dp4042
g99
g100
ssg81
g4031
sg74
(lp4043
S':'
asbag67
(g88
g69
NtRp4044
(dp4045
g72
(dp4046
sg81
g4031
sg74
(lp4047
g67
(g68
g69
NtRp4048
(dp4049
g72
(dp4050
g80
I5
ssg81
g4044
sg74
(lp4051
S'default/contact.html'
p4052
asbasbasbasbasbsS'locals'
p4053
(dp4054
g4
S"'/media/Windows/Users/Tushar/Education/IIIT/3rd_Y...pplications/whiteboard/views/default/contact.html'"
p4055
sg6
S'\'response.files.append(URL(\\\'static\\\',"css/contact....\\\'\\\\n    </div>\\\\n</body>\\\\n</html>\\\\n\\\', escape=False)\''
p4056
sssS'traceback'
p4057
S'Traceback (most recent call last):\n  File "/media/Windows/Users/Tushar/Education/IIIT/3rd_Year/2nd Sem/BTP/Project/web2py/gluon/restricted.py", line 204, in restricted\n    ccode = compile2(code,layer)\n  File "/media/Windows/Users/Tushar/Education/IIIT/3rd_Year/2nd Sem/BTP/Project/web2py/gluon/restricted.py", line 189, in compile2\n    return compile(code.rstrip().replace(\'\\r\\n\',\'\\n\')+\'\\n\', layer, \'exec\')\n  File "/media/Windows/Users/Tushar/Education/IIIT/3rd_Year/2nd Sem/BTP/Project/web2py/applications/whiteboard/views/default/contact.html", line 2\n    response.write(\'\\n\', escape=False)\n           ^\nSyntaxError: invalid syntax\n'
p4058
s.