(dp1
S'output'
p2
S"<type 'exceptions.SyntaxError'> invalid syntax (db.py, line 88)"
p3
sS'layer'
p4
S'/home/sheetal/web2py/applications/PhotoUpload/models/db.py'
p5
sS'code'
p6
S"# -*- coding: utf-8 -*-\n\n#########################################################################\n## This scaffolding model makes your app work on Google App Engine too\n## File is released under public domain and you can use without limitations\n#########################################################################\n\n## if SSL/HTTPS is properly configured and you want all HTTP requests to\n## be redirected to HTTPS, uncomment the line below:\n# request.requires_https()\n\nif not request.env.web2py_runtime_gae:\n    ## if NOT running on Google App Engine use SQLite or other DB\n    db = DAL('sqlite://storage.sqlite')\nelse:\n    ## connect to Google BigTable (optional 'google:datastore://namespace')\n    db = DAL('google:datastore')\n    ## store sessions and tickets there\n    session.connect(request, response, db = db)\n    ## or store session in Memcache, Redis, etc.\n    ## from gluon.contrib.memdb import MEMDB\n    ## from google.appengine.api.memcache import Client\n    ## session.connect(request, response, db = MEMDB(Client()))\n\n## by default give a view/generic.extension to all actions from localhost\n## none otherwise. a pattern can be 'controller/function.extension'\nresponse.generic_patterns = ['*'] if request.is_local else []\n## (optional) optimize handling of static files\n# response.optimize_css = 'concat,minify,inline'\n# response.optimize_js = 'concat,minify,inline'\n\n#########################################################################\n## Here is sample code if you need for\n## - email capabilities\n## - authentication (registration, login, logout, ... )\n## - authorization (role based authorization)\n## - services (xml, csv, json, xmlrpc, jsonrpc, amf, rss)\n## - old style crud actions\n## (more options discussed in gluon/tools.py)\n#########################################################################\n\nfrom gluon.tools import Auth, Crud, Service, PluginManager, prettydate\nauth = Auth(db, hmac_key=Auth.get_or_create_key())\ncrud, service, plugins = Crud(db), Service(), PluginManager()\n\n## create all tables needed by auth if not custom tables\nauth.define_tables()\n\n## configure email\nmail=auth.settings.mailer\nmail.settings.server = 'logging' or 'smtp.gmail.com:587'\nmail.settings.sender = 'you@gmail.com'\nmail.settings.login = 'username:password'\n\n## configure auth policy\nauth.settings.registration_requires_verification = False\nauth.settings.registration_requires_approval = False\nauth.settings.reset_password_requires_verification = True\n\n## if you need to use OpenID, Facebook, MySpace, Twitter, Linkedin, etc.\n## register with janrain.com, write your domain:api_key in private/janrain.key\nfrom gluon.contrib.login_methods.rpx_account import use_janrain\nuse_janrain(auth,filename='private/janrain.key')\n\n#########################################################################\n## Define your tables below (or better in another model file) for example\n##\n## >>> db.define_table('mytable',Field('myfield','string'))\n##\n## Fields can be 'string','text','password','integer','double','boolean'\n##       'date','time','datetime','blob','upload', 'reference TABLENAME'\n## There is an implicit 'id integer autoincrement' field\n## Consult manual for more options, validators, etc.\n##\n## More API examples for controllers:\n##\n## >>> db.mytable.insert(myfield='value')\n## >>> rows=db(db.mytable.myfield=='value').select(db.mytable.ALL)\n## >>> for row in rows: print row.id, row.myfield\n#########################################################################\n\ndb.define_table('pictures',\n    Field('title'),\n    Field('date','date'),\n    Field('image','upload'))    \n    \ndb.define_table('comments',\n    Field('pId',db.pictures\n"
p7
sS'snapshot'
p8
(dp9
S'exception'
p10
(dp11
S'__getslice__'
p12
S"<method-wrapper '__getslice__' of exceptions.SyntaxError object>"
p13
sS'text'
p14
S'"    Field(\'pId\',db.pictures\\n"'
p15
sS'__str__'
p16
S"<method-wrapper '__str__' of exceptions.SyntaxError object>"
p17
sS'__reduce__'
p18
S'<built-in method __reduce__ of exceptions.SyntaxError object>'
p19
sS'__dict__'
p20
S'{}'
p21
sS'__sizeof__'
p22
S'<built-in method __sizeof__ of exceptions.SyntaxError object>'
p23
sS'__init__'
p24
S"<method-wrapper '__init__' of exceptions.SyntaxError object>"
p25
sS'__setattr__'
p26
S"<method-wrapper '__setattr__' of exceptions.SyntaxError object>"
p27
sS'__reduce_ex__'
p28
S'<built-in method __reduce_ex__ of exceptions.SyntaxError object>'
p29
sS'__new__'
p30
S'<built-in method __new__ of type object>'
p31
sS'__format__'
p32
S'<built-in method __format__ of exceptions.SyntaxError object>'
p33
sS'__class__'
p34
S"<type 'exceptions.SyntaxError'>"
p35
sS'filename'
p36
S"'/home/sheetal/web2py/applications/PhotoUpload/models/db.py'"
p37
sS'lineno'
p38
S'88'
p39
sS'msg'
p40
S"'invalid syntax'"
p41
sS'__doc__'
p42
S"'Invalid syntax.'"
p43
sS'__getitem__'
p44
S"<method-wrapper '__getitem__' of exceptions.SyntaxError object>"
p45
sS'__setstate__'
p46
S'<built-in method __setstate__ of exceptions.SyntaxError object>'
p47
sS'__getattribute__'
p48
S"<method-wrapper '__getattribute__' of exceptions.SyntaxError object>"
p49
sS'print_file_and_line'
p50
S'None'
p51
sS'args'
p52
S'(\'invalid syntax\', (\'/home/sheetal/web2py/applications/PhotoUpload/models/db.py\', 88, 28, "    Field(\'pId\',db.pictures\\n"))'
p53
sS'__subclasshook__'
p54
S'<built-in method __subclasshook__ of type object>'
p55
sS'offset'
p56
S'28'
p57
sS'__unicode__'
p58
S'<built-in method __unicode__ of exceptions.SyntaxError object>'
p59
sS'__delattr__'
p60
S"<method-wrapper '__delattr__' of exceptions.SyntaxError object>"
p61
sS'__repr__'
p62
S"<method-wrapper '__repr__' of exceptions.SyntaxError object>"
p63
sS'__hash__'
p64
S"<method-wrapper '__hash__' of exceptions.SyntaxError object>"
p65
ssS'evalue'
p66
S'invalid syntax (db.py, line 88)'
p67
sS'request'
p68
ccopy_reg
_reconstructor
p69
(cgluon.html
BEAUTIFY
p70
c__builtin__
object
p71
NtRp72
(dp73
S'attributes'
p74
(dp75
sS'components'
p76
(lp77
g69
(cgluon.html
TABLE
p78
g71
NtRp79
(dp80
g74
(dp81
S'level'
p82
I5
ssS'parent'
p83
Nsg76
(lp84
g69
(cgluon.html
TR
p85
g71
NtRp86
(dp87
g74
(dp88
sg83
g79
sg76
(lp89
g69
(cgluon.html
TD
p90
g71
NtRp91
(dp92
g74
(dp93
S'_style'
p94
S'font-weight:bold;vertical-align:top'
p95
ssg83
g86
sg76
(lp96
S'ajax'
p97
asbag69
(g90
g71
NtRp98
(dp99
g74
(dp100
S'_valign'
p101
S'top'
p102
ssg83
g86
sg76
(lp103
S':'
asbag69
(g90
g71
NtRp104
(dp105
g74
(dp106
sg83
g86
sg76
(lp107
g69
(g70
g71
NtRp108
(dp109
g74
(dp110
g82
I5
ssg83
g104
sg76
(lp111
S'False'
p112
asbasbasbag69
(g85
g71
NtRp113
(dp114
g74
(dp115
sg83
g79
sg76
(lp116
g69
(g90
g71
NtRp117
(dp118
g74
(dp119
g94
g95
ssg83
g113
sg76
(lp120
S'application'
p121
asbag69
(g90
g71
NtRp122
(dp123
g74
(dp124
g101
g102
ssg83
g113
sg76
(lp125
S':'
asbag69
(g90
g71
NtRp126
(dp127
g74
(dp128
sg83
g113
sg76
(lp129
g69
(g70
g71
NtRp130
(dp131
g74
(dp132
g82
I5
ssg83
g126
sg76
(lp133
S'PhotoUpload'
p134
asbasbasbag69
(g85
g71
NtRp135
(dp136
g74
(dp137
sg83
g79
sg76
(lp138
g69
(g90
g71
NtRp139
(dp140
g74
(dp141
g94
g95
ssg83
g135
sg76
(lp142
g52
asbag69
(g90
g71
NtRp143
(dp144
g74
(dp145
g101
g102
ssg83
g135
sg76
(lp146
S':'
asbag69
(g90
g71
NtRp147
(dp148
g74
(dp149
sg83
g135
sg76
(lp150
g69
(g70
g71
NtRp151
(dp152
g74
(dp153
g82
I5
ssg83
g147
sg76
(lp154
g69
(g78
g71
NtRp155
(dp156
g74
(dp157
g82
I4
ssg83
Nsg76
(lp158
g69
(g85
g71
NtRp159
(dp160
g74
(dp161
sg83
g155
sg76
(lp162
g69
(g90
g71
NtRp163
(dp164
g74
(dp165
sg83
g159
sg76
(lp166
g69
(g70
g71
NtRp167
(dp168
g74
(dp169
g82
I4
ssg83
g163
sg76
(lp170
S'db'
p171
asbasbasbag69
(g85
g71
NtRp172
(dp173
g74
(dp174
sg83
g155
sg76
(lp175
g69
(g90
g71
NtRp176
(dp177
g74
(dp178
sg83
g172
sg76
(lp179
g69
(g70
g71
NtRp180
(dp181
g74
(dp182
g82
I4
ssg83
g176
sg76
(lp183
S'auth_user'
p184
asbasbasbasbasbasbasbag69
(g85
g71
NtRp185
(dp186
g74
(dp187
sg83
g79
sg76
(lp188
g69
(g90
g71
NtRp189
(dp190
g74
(dp191
g94
g95
ssg83
g185
sg76
(lp192
S'body'
p193
asbag69
(g90
g71
NtRp194
(dp195
g74
(dp196
g101
g102
ssg83
g185
sg76
(lp197
S':'
asbag69
(g90
g71
NtRp198
(dp199
g74
(dp200
sg83
g185
sg76
(lp201
g69
(g70
g71
NtRp202
(dp203
g74
(dp204
g82
I5
ssg83
g198
sg76
(lp205
S'<cStringIO.StringO object at 0x7f1bf016b7d8>'
p206
asbasbasbag69
(g85
g71
NtRp207
(dp208
g74
(dp209
sg83
g79
sg76
(lp210
g69
(g90
g71
NtRp211
(dp212
g74
(dp213
g94
g95
ssg83
g207
sg76
(lp214
S'client'
p215
asbag69
(g90
g71
NtRp216
(dp217
g74
(dp218
g101
g102
ssg83
g207
sg76
(lp219
S':'
asbag69
(g90
g71
NtRp220
(dp221
g74
(dp222
sg83
g207
sg76
(lp223
g69
(g70
g71
NtRp224
(dp225
g74
(dp226
g82
I5
ssg83
g220
sg76
(lp227
S'127.0.0.1'
p228
asbasbasbag69
(g85
g71
NtRp229
(dp230
g74
(dp231
sg83
g79
sg76
(lp232
g69
(g90
g71
NtRp233
(dp234
g74
(dp235
g94
g95
ssg83
g229
sg76
(lp236
S'controller'
p237
asbag69
(g90
g71
NtRp238
(dp239
g74
(dp240
g101
g102
ssg83
g229
sg76
(lp241
S':'
asbag69
(g90
g71
NtRp242
(dp243
g74
(dp244
sg83
g229
sg76
(lp245
g69
(g70
g71
NtRp246
(dp247
g74
(dp248
g82
I5
ssg83
g242
sg76
(lp249
S'appadmin'
p250
asbasbasbag69
(g85
g71
NtRp251
(dp252
g74
(dp253
sg83
g79
sg76
(lp254
g69
(g90
g71
NtRp255
(dp256
g74
(dp257
g94
g95
ssg83
g251
sg76
(lp258
S'cookies'
p259
asbag69
(g90
g71
NtRp260
(dp261
g74
(dp262
g101
g102
ssg83
g251
sg76
(lp263
S':'
asbag69
(g90
g71
NtRp264
(dp265
g74
(dp266
sg83
g251
sg76
(lp267
g69
(g70
g71
NtRp268
(dp269
g74
(dp270
g82
I5
ssg83
g264
sg76
(lp271
g69
(g78
g71
NtRp272
(dp273
g74
(dp274
g82
I4
ssg83
Nsg76
(lp275
g69
(g85
g71
NtRp276
(dp277
g74
(dp278
sg83
g272
sg76
(lp279
g69
(g90
g71
NtRp280
(dp281
g74
(dp282
g94
g95
ssg83
g276
sg76
(lp283
S'session_id_admin'
p284
asbag69
(g90
g71
NtRp285
(dp286
g74
(dp287
g101
g102
ssg83
g276
sg76
(lp288
S':'
asbag69
(g90
g71
NtRp289
(dp290
g74
(dp291
sg83
g276
sg76
(lp292
g69
(g70
g71
NtRp293
(dp294
g74
(dp295
g82
I4
ssg83
g289
sg76
(lp296
g69
(g78
g71
NtRp297
(dp298
g74
(dp299
g82
I3
ssg83
Nsg76
(lp300
g69
(g85
g71
NtRp301
(dp302
g74
(dp303
sg83
g297
sg76
(lp304
g69
(g90
g71
NtRp305
(dp306
g74
(dp307
g94
g95
ssg83
g301
sg76
(lp308
S'comment'
p309
asbag69
(g90
g71
NtRp310
(dp311
g74
(dp312
g101
g102
ssg83
g301
sg76
(lp313
S':'
asbag69
(g90
g71
NtRp314
(dp315
g74
(dp316
sg83
g301
sg76
(lp317
g69
(g70
g71
NtRp318
(dp319
g74
(dp320
g82
I3
ssg83
g314
sg76
(lp321
S''
asbasbasbag69
(g85
g71
NtRp322
(dp323
g74
(dp324
sg83
g297
sg76
(lp325
g69
(g90
g71
NtRp326
(dp327
g74
(dp328
g94
g95
ssg83
g322
sg76
(lp329
S'domain'
p330
asbag69
(g90
g71
NtRp331
(dp332
g74
(dp333
g101
g102
ssg83
g322
sg76
(lp334
S':'
asbag69
(g90
g71
NtRp335
(dp336
g74
(dp337
sg83
g322
sg76
(lp338
g69
(g70
g71
NtRp339
(dp340
g74
(dp341
g82
I3
ssg83
g335
sg76
(lp342
S''
asbasbasbag69
(g85
g71
NtRp343
(dp344
g74
(dp345
sg83
g297
sg76
(lp346
g69
(g90
g71
NtRp347
(dp348
g74
(dp349
g94
g95
ssg83
g343
sg76
(lp350
S'expires'
p351
asbag69
(g90
g71
NtRp352
(dp353
g74
(dp354
g101
g102
ssg83
g343
sg76
(lp355
S':'
asbag69
(g90
g71
NtRp356
(dp357
g74
(dp358
sg83
g343
sg76
(lp359
g69
(g70
g71
NtRp360
(dp361
g74
(dp362
g82
I3
ssg83
g356
sg76
(lp363
S''
asbasbasbag69
(g85
g71
NtRp364
(dp365
g74
(dp366
sg83
g297
sg76
(lp367
g69
(g90
g71
NtRp368
(dp369
g74
(dp370
g94
g95
ssg83
g364
sg76
(lp371
S'httponly'
p372
asbag69
(g90
g71
NtRp373
(dp374
g74
(dp375
g101
g102
ssg83
g364
sg76
(lp376
S':'
asbag69
(g90
g71
NtRp377
(dp378
g74
(dp379
sg83
g364
sg76
(lp380
g69
(g70
g71
NtRp381
(dp382
g74
(dp383
g82
I3
ssg83
g377
sg76
(lp384
S''
asbasbasbag69
(g85
g71
NtRp385
(dp386
g74
(dp387
sg83
g297
sg76
(lp388
g69
(g90
g71
NtRp389
(dp390
g74
(dp391
g94
g95
ssg83
g385
sg76
(lp392
S'max-age'
p393
asbag69
(g90
g71
NtRp394
(dp395
g74
(dp396
g101
g102
ssg83
g385
sg76
(lp397
S':'
asbag69
(g90
g71
NtRp398
(dp399
g74
(dp400
sg83
g385
sg76
(lp401
g69
(g70
g71
NtRp402
(dp403
g74
(dp404
g82
I3
ssg83
g398
sg76
(lp405
S''
asbasbasbag69
(g85
g71
NtRp406
(dp407
g74
(dp408
sg83
g297
sg76
(lp409
g69
(g90
g71
NtRp410
(dp411
g74
(dp412
g94
g95
ssg83
g406
sg76
(lp413
S'path'
p414
asbag69
(g90
g71
NtRp415
(dp416
g74
(dp417
g101
g102
ssg83
g406
sg76
(lp418
S':'
asbag69
(g90
g71
NtRp419
(dp420
g74
(dp421
sg83
g406
sg76
(lp422
g69
(g70
g71
NtRp423
(dp424
g74
(dp425
g82
I3
ssg83
g419
sg76
(lp426
S''
asbasbasbag69
(g85
g71
NtRp427
(dp428
g74
(dp429
sg83
g297
sg76
(lp430
g69
(g90
g71
NtRp431
(dp432
g74
(dp433
g94
g95
ssg83
g427
sg76
(lp434
S'secure'
p435
asbag69
(g90
g71
NtRp436
(dp437
g74
(dp438
g101
g102
ssg83
g427
sg76
(lp439
S':'
asbag69
(g90
g71
NtRp440
(dp441
g74
(dp442
sg83
g427
sg76
(lp443
g69
(g70
g71
NtRp444
(dp445
g74
(dp446
g82
I3
ssg83
g440
sg76
(lp447
S''
asbasbasbag69
(g85
g71
NtRp448
(dp449
g74
(dp450
sg83
g297
sg76
(lp451
g69
(g90
g71
NtRp452
(dp453
g74
(dp454
g94
g95
ssg83
g448
sg76
(lp455
S'version'
p456
asbag69
(g90
g71
NtRp457
(dp458
g74
(dp459
g101
g102
ssg83
g448
sg76
(lp460
S':'
asbag69
(g90
g71
NtRp461
(dp462
g74
(dp463
sg83
g448
sg76
(lp464
g69
(g70
g71
NtRp465
(dp466
g74
(dp467
g82
I3
ssg83
g461
sg76
(lp468
S''
asbasbasbasbasbasbasbag69
(g85
g71
NtRp469
(dp470
g74
(dp471
sg83
g272
sg76
(lp472
g69
(g90
g71
NtRp473
(dp474
g74
(dp475
g94
g95
ssg83
g469
sg76
(lp476
S'session_id_photoupload'
p477
asbag69
(g90
g71
NtRp478
(dp479
g74
(dp480
g101
g102
ssg83
g469
sg76
(lp481
S':'
asbag69
(g90
g71
NtRp482
(dp483
g74
(dp484
sg83
g469
sg76
(lp485
g69
(g70
g71
NtRp486
(dp487
g74
(dp488
g82
I4
ssg83
g482
sg76
(lp489
g69
(g78
g71
NtRp490
(dp491
g74
(dp492
g82
I3
ssg83
Nsg76
(lp493
g69
(g85
g71
NtRp494
(dp495
g74
(dp496
sg83
g490
sg76
(lp497
g69
(g90
g71
NtRp498
(dp499
g74
(dp500
g94
g95
ssg83
g494
sg76
(lp501
g309
asbag69
(g90
g71
NtRp502
(dp503
g74
(dp504
g101
g102
ssg83
g494
sg76
(lp505
S':'
asbag69
(g90
g71
NtRp506
(dp507
g74
(dp508
sg83
g494
sg76
(lp509
g69
(g70
g71
NtRp510
(dp511
g74
(dp512
g82
I3
ssg83
g506
sg76
(lp513
S''
asbasbasbag69
(g85
g71
NtRp514
(dp515
g74
(dp516
sg83
g490
sg76
(lp517
g69
(g90
g71
NtRp518
(dp519
g74
(dp520
g94
g95
ssg83
g514
sg76
(lp521
g330
asbag69
(g90
g71
NtRp522
(dp523
g74
(dp524
g101
g102
ssg83
g514
sg76
(lp525
S':'
asbag69
(g90
g71
NtRp526
(dp527
g74
(dp528
sg83
g514
sg76
(lp529
g69
(g70
g71
NtRp530
(dp531
g74
(dp532
g82
I3
ssg83
g526
sg76
(lp533
S''
asbasbasbag69
(g85
g71
NtRp534
(dp535
g74
(dp536
sg83
g490
sg76
(lp537
g69
(g90
g71
NtRp538
(dp539
g74
(dp540
g94
g95
ssg83
g534
sg76
(lp541
g351
asbag69
(g90
g71
NtRp542
(dp543
g74
(dp544
g101
g102
ssg83
g534
sg76
(lp545
S':'
asbag69
(g90
g71
NtRp546
(dp547
g74
(dp548
sg83
g534
sg76
(lp549
g69
(g70
g71
NtRp550
(dp551
g74
(dp552
g82
I3
ssg83
g546
sg76
(lp553
S''
asbasbasbag69
(g85
g71
NtRp554
(dp555
g74
(dp556
sg83
g490
sg76
(lp557
g69
(g90
g71
NtRp558
(dp559
g74
(dp560
g94
g95
ssg83
g554
sg76
(lp561
g372
asbag69
(g90
g71
NtRp562
(dp563
g74
(dp564
g101
g102
ssg83
g554
sg76
(lp565
S':'
asbag69
(g90
g71
NtRp566
(dp567
g74
(dp568
sg83
g554
sg76
(lp569
g69
(g70
g71
NtRp570
(dp571
g74
(dp572
g82
I3
ssg83
g566
sg76
(lp573
S''
asbasbasbag69
(g85
g71
NtRp574
(dp575
g74
(dp576
sg83
g490
sg76
(lp577
g69
(g90
g71
NtRp578
(dp579
g74
(dp580
g94
g95
ssg83
g574
sg76
(lp581
g393
asbag69
(g90
g71
NtRp582
(dp583
g74
(dp584
g101
g102
ssg83
g574
sg76
(lp585
S':'
asbag69
(g90
g71
NtRp586
(dp587
g74
(dp588
sg83
g574
sg76
(lp589
g69
(g70
g71
NtRp590
(dp591
g74
(dp592
g82
I3
ssg83
g586
sg76
(lp593
S''
asbasbasbag69
(g85
g71
NtRp594
(dp595
g74
(dp596
sg83
g490
sg76
(lp597
g69
(g90
g71
NtRp598
(dp599
g74
(dp600
g94
g95
ssg83
g594
sg76
(lp601
g414
asbag69
(g90
g71
NtRp602
(dp603
g74
(dp604
g101
g102
ssg83
g594
sg76
(lp605
S':'
asbag69
(g90
g71
NtRp606
(dp607
g74
(dp608
sg83
g594
sg76
(lp609
g69
(g70
g71
NtRp610
(dp611
g74
(dp612
g82
I3
ssg83
g606
sg76
(lp613
S''
asbasbasbag69
(g85
g71
NtRp614
(dp615
g74
(dp616
sg83
g490
sg76
(lp617
g69
(g90
g71
NtRp618
(dp619
g74
(dp620
g94
g95
ssg83
g614
sg76
(lp621
g435
asbag69
(g90
g71
NtRp622
(dp623
g74
(dp624
g101
g102
ssg83
g614
sg76
(lp625
S':'
asbag69
(g90
g71
NtRp626
(dp627
g74
(dp628
sg83
g614
sg76
(lp629
g69
(g70
g71
NtRp630
(dp631
g74
(dp632
g82
I3
ssg83
g626
sg76
(lp633
S''
asbasbasbag69
(g85
g71
NtRp634
(dp635
g74
(dp636
sg83
g490
sg76
(lp637
g69
(g90
g71
NtRp638
(dp639
g74
(dp640
g94
g95
ssg83
g634
sg76
(lp641
g456
asbag69
(g90
g71
NtRp642
(dp643
g74
(dp644
g101
g102
ssg83
g634
sg76
(lp645
S':'
asbag69
(g90
g71
NtRp646
(dp647
g74
(dp648
sg83
g634
sg76
(lp649
g69
(g70
g71
NtRp650
(dp651
g74
(dp652
g82
I3
ssg83
g646
sg76
(lp653
S''
asbasbasbasbasbasbasbag69
(g85
g71
NtRp654
(dp655
g74
(dp656
sg83
g272
sg76
(lp657
g69
(g90
g71
NtRp658
(dp659
g74
(dp660
g94
g95
ssg83
g654
sg76
(lp661
S'session_id_welcome'
p662
asbag69
(g90
g71
NtRp663
(dp664
g74
(dp665
g101
g102
ssg83
g654
sg76
(lp666
S':'
asbag69
(g90
g71
NtRp667
(dp668
g74
(dp669
sg83
g654
sg76
(lp670
g69
(g70
g71
NtRp671
(dp672
g74
(dp673
g82
I4
ssg83
g667
sg76
(lp674
g69
(g78
g71
NtRp675
(dp676
g74
(dp677
g82
I3
ssg83
Nsg76
(lp678
g69
(g85
g71
NtRp679
(dp680
g74
(dp681
sg83
g675
sg76
(lp682
g69
(g90
g71
NtRp683
(dp684
g74
(dp685
g94
g95
ssg83
g679
sg76
(lp686
g309
asbag69
(g90
g71
NtRp687
(dp688
g74
(dp689
g101
g102
ssg83
g679
sg76
(lp690
S':'
asbag69
(g90
g71
NtRp691
(dp692
g74
(dp693
sg83
g679
sg76
(lp694
g69
(g70
g71
NtRp695
(dp696
g74
(dp697
g82
I3
ssg83
g691
sg76
(lp698
S''
asbasbasbag69
(g85
g71
NtRp699
(dp700
g74
(dp701
sg83
g675
sg76
(lp702
g69
(g90
g71
NtRp703
(dp704
g74
(dp705
g94
g95
ssg83
g699
sg76
(lp706
g330
asbag69
(g90
g71
NtRp707
(dp708
g74
(dp709
g101
g102
ssg83
g699
sg76
(lp710
S':'
asbag69
(g90
g71
NtRp711
(dp712
g74
(dp713
sg83
g699
sg76
(lp714
g69
(g70
g71
NtRp715
(dp716
g74
(dp717
g82
I3
ssg83
g711
sg76
(lp718
S''
asbasbasbag69
(g85
g71
NtRp719
(dp720
g74
(dp721
sg83
g675
sg76
(lp722
g69
(g90
g71
NtRp723
(dp724
g74
(dp725
g94
g95
ssg83
g719
sg76
(lp726
g351
asbag69
(g90
g71
NtRp727
(dp728
g74
(dp729
g101
g102
ssg83
g719
sg76
(lp730
S':'
asbag69
(g90
g71
NtRp731
(dp732
g74
(dp733
sg83
g719
sg76
(lp734
g69
(g70
g71
NtRp735
(dp736
g74
(dp737
g82
I3
ssg83
g731
sg76
(lp738
S''
asbasbasbag69
(g85
g71
NtRp739
(dp740
g74
(dp741
sg83
g675
sg76
(lp742
g69
(g90
g71
NtRp743
(dp744
g74
(dp745
g94
g95
ssg83
g739
sg76
(lp746
g372
asbag69
(g90
g71
NtRp747
(dp748
g74
(dp749
g101
g102
ssg83
g739
sg76
(lp750
S':'
asbag69
(g90
g71
NtRp751
(dp752
g74
(dp753
sg83
g739
sg76
(lp754
g69
(g70
g71
NtRp755
(dp756
g74
(dp757
g82
I3
ssg83
g751
sg76
(lp758
S''
asbasbasbag69
(g85
g71
NtRp759
(dp760
g74
(dp761
sg83
g675
sg76
(lp762
g69
(g90
g71
NtRp763
(dp764
g74
(dp765
g94
g95
ssg83
g759
sg76
(lp766
g393
asbag69
(g90
g71
NtRp767
(dp768
g74
(dp769
g101
g102
ssg83
g759
sg76
(lp770
S':'
asbag69
(g90
g71
NtRp771
(dp772
g74
(dp773
sg83
g759
sg76
(lp774
g69
(g70
g71
NtRp775
(dp776
g74
(dp777
g82
I3
ssg83
g771
sg76
(lp778
S''
asbasbasbag69
(g85
g71
NtRp779
(dp780
g74
(dp781
sg83
g675
sg76
(lp782
g69
(g90
g71
NtRp783
(dp784
g74
(dp785
g94
g95
ssg83
g779
sg76
(lp786
g414
asbag69
(g90
g71
NtRp787
(dp788
g74
(dp789
g101
g102
ssg83
g779
sg76
(lp790
S':'
asbag69
(g90
g71
NtRp791
(dp792
g74
(dp793
sg83
g779
sg76
(lp794
g69
(g70
g71
NtRp795
(dp796
g74
(dp797
g82
I3
ssg83
g791
sg76
(lp798
S''
asbasbasbag69
(g85
g71
NtRp799
(dp800
g74
(dp801
sg83
g675
sg76
(lp802
g69
(g90
g71
NtRp803
(dp804
g74
(dp805
g94
g95
ssg83
g799
sg76
(lp806
g435
asbag69
(g90
g71
NtRp807
(dp808
g74
(dp809
g101
g102
ssg83
g799
sg76
(lp810
S':'
asbag69
(g90
g71
NtRp811
(dp812
g74
(dp813
sg83
g799
sg76
(lp814
g69
(g70
g71
NtRp815
(dp816
g74
(dp817
g82
I3
ssg83
g811
sg76
(lp818
S''
asbasbasbag69
(g85
g71
NtRp819
(dp820
g74
(dp821
sg83
g675
sg76
(lp822
g69
(g90
g71
NtRp823
(dp824
g74
(dp825
g94
g95
ssg83
g819
sg76
(lp826
g456
asbag69
(g90
g71
NtRp827
(dp828
g74
(dp829
g101
g102
ssg83
g819
sg76
(lp830
S':'
asbag69
(g90
g71
NtRp831
(dp832
g74
(dp833
sg83
g819
sg76
(lp834
g69
(g70
g71
NtRp835
(dp836
g74
(dp837
g82
I3
ssg83
g831
sg76
(lp838
S''
asbasbasbasbasbasbasbasbasbasbasbag69
(g85
g71
NtRp839
(dp840
g74
(dp841
sg83
g79
sg76
(lp842
g69
(g90
g71
NtRp843
(dp844
g74
(dp845
g94
g95
ssg83
g839
sg76
(lp846
S'env'
p847
asbag69
(g90
g71
NtRp848
(dp849
g74
(dp850
g101
g102
ssg83
g839
sg76
(lp851
S':'
asbag69
(g90
g71
NtRp852
(dp853
g74
(dp854
sg83
g839
sg76
(lp855
g69
(g70
g71
NtRp856
(dp857
g74
(dp858
g82
I5
ssg83
g852
sg76
(lp859
g69
(g78
g71
NtRp860
(dp861
g74
(dp862
g82
I4
ssg83
Nsg76
(lp863
g69
(g85
g71
NtRp864
(dp865
g74
(dp866
sg83
g860
sg76
(lp867
g69
(g90
g71
NtRp868
(dp869
g74
(dp870
g94
g95
ssg83
g864
sg76
(lp871
S'app_folders'
p872
asbag69
(g90
g71
NtRp873
(dp874
g74
(dp875
g101
g102
ssg83
g864
sg76
(lp876
S':'
asbag69
(g90
g71
NtRp877
(dp878
g74
(dp879
sg83
g864
sg76
(lp880
g69
(g70
g71
NtRp881
(dp882
g74
(dp883
g82
I4
ssg83
g877
sg76
(lp884
S"set(['/home/sheetal/web2py/applications/PhotoUpload/', '/home/sheetal/web2py/applications/admin/', '/home/sheetal/web2py/applications/welcome/'])"
p885
asbasbasbag69
(g85
g71
NtRp886
(dp887
g74
(dp888
sg83
g860
sg76
(lp889
g69
(g90
g71
NtRp890
(dp891
g74
(dp892
g94
g95
ssg83
g886
sg76
(lp893
S'applications_parent'
p894
asbag69
(g90
g71
NtRp895
(dp896
g74
(dp897
g101
g102
ssg83
g886
sg76
(lp898
S':'
asbag69
(g90
g71
NtRp899
(dp900
g74
(dp901
sg83
g886
sg76
(lp902
g69
(g70
g71
NtRp903
(dp904
g74
(dp905
g82
I4
ssg83
g899
sg76
(lp906
S'/home/sheetal/web2py'
p907
asbasbasbag69
(g85
g71
NtRp908
(dp909
g74
(dp910
sg83
g860
sg76
(lp911
g69
(g90
g71
NtRp912
(dp913
g74
(dp914
g94
g95
ssg83
g908
sg76
(lp915
S'cmd_args'
p916
asbag69
(g90
g71
NtRp917
(dp918
g74
(dp919
g101
g102
ssg83
g908
sg76
(lp920
S':'
asbag69
(g90
g71
NtRp921
(dp922
g74
(dp923
sg83
g908
sg76
(lp924
g69
(g70
g71
NtRp925
(dp926
g74
(dp927
g82
I4
ssg83
g921
sg76
(lp928
g69
(g78
g71
NtRp929
(dp930
g74
(dp931
g82
I3
ssg83
Nsg76
(lp932
sbasbasbasbag69
(g85
g71
NtRp933
(dp934
g74
(dp935
sg83
g860
sg76
(lp936
g69
(g90
g71
NtRp937
(dp938
g74
(dp939
g94
g95
ssg83
g933
sg76
(lp940
S'cmd_options'
p941
asbag69
(g90
g71
NtRp942
(dp943
g74
(dp944
g101
g102
ssg83
g933
sg76
(lp945
S':'
asbag69
(g90
g71
NtRp946
(dp947
g74
(dp948
sg83
g933
sg76
(lp949
g69
(g70
g71
NtRp950
(dp951
g74
(dp952
g82
I4
ssg83
g946
sg76
(lp953
S"<Values at 0x2837cf8: {'verbose': False, 'ip': '127.0.0.1', 'shutdown_timeout': 5, 'taskbar': False, 'nocron': False, 'pid_filename': 'httpserver.pid', 'maxthreads': None, 'softcron': False, 'server_name': 'ubuntu', 'bpython': False, 'nogui': False, 'port': 8000, 'extcron': False, 'debuglevel': 30, 'test': None, 'folder': '/home/sheetal/web2py', 'config': '', 'import_models': False, 'winservice': '', 'shell': None, 'run': '', 'log_filename': 'httpserver.log', 'args': [''], 'socket_timeout': 5, 'ssl_ca_certificate': None, 'scheduler': None, 'profiler_filename': None, 'ssl_private_key': '', 'password': 'qwe123', 'request_queue_size': 5, 'ssl_certificate': '', 'cronjob': False, 'numthreads': None, 'quiet': False, 'interfaces': None, 'minthreads': None, 'timeout': 10, 'plain': False, 'nobanner': False}>"
p954
asbasbasbag69
(g85
g71
NtRp955
(dp956
g74
(dp957
sg83
g860
sg76
(lp958
g69
(g90
g71
NtRp959
(dp960
g74
(dp961
g94
g95
ssg83
g955
sg76
(lp962
S'db_sessions'
p963
asbag69
(g90
g71
NtRp964
(dp965
g74
(dp966
g101
g102
ssg83
g955
sg76
(lp967
S':'
asbag69
(g90
g71
NtRp968
(dp969
g74
(dp970
sg83
g955
sg76
(lp971
g69
(g70
g71
NtRp972
(dp973
g74
(dp974
g82
I4
ssg83
g968
sg76
(lp975
S'set([])'
p976
asbasbasbag69
(g85
g71
NtRp977
(dp978
g74
(dp979
sg83
g860
sg76
(lp980
g69
(g90
g71
NtRp981
(dp982
g74
(dp983
g94
g95
ssg83
g977
sg76
(lp984
S'debugging'
p985
asbag69
(g90
g71
NtRp986
(dp987
g74
(dp988
g101
g102
ssg83
g977
sg76
(lp989
S':'
asbag69
(g90
g71
NtRp990
(dp991
g74
(dp992
sg83
g977
sg76
(lp993
g69
(g70
g71
NtRp994
(dp995
g74
(dp996
g82
I4
ssg83
g990
sg76
(lp997
g112
asbasbasbag69
(g85
g71
NtRp998
(dp999
g74
(dp1000
sg83
g860
sg76
(lp1001
g69
(g90
g71
NtRp1002
(dp1003
g74
(dp1004
g94
g95
ssg83
g998
sg76
(lp1005
S'gluon_parent'
p1006
asbag69
(g90
g71
NtRp1007
(dp1008
g74
(dp1009
g101
g102
ssg83
g998
sg76
(lp1010
S':'
asbag69
(g90
g71
NtRp1011
(dp1012
g74
(dp1013
sg83
g998
sg76
(lp1014
g69
(g70
g71
NtRp1015
(dp1016
g74
(dp1017
g82
I4
ssg83
g1011
sg76
(lp1018
S'/home/sheetal/web2py'
p1019
asbasbasbag69
(g85
g71
NtRp1020
(dp1021
g74
(dp1022
sg83
g860
sg76
(lp1023
g69
(g90
g71
NtRp1024
(dp1025
g74
(dp1026
g94
g95
ssg83
g1020
sg76
(lp1027
S'http_accept'
p1028
asbag69
(g90
g71
NtRp1029
(dp1030
g74
(dp1031
g101
g102
ssg83
g1020
sg76
(lp1032
S':'
asbag69
(g90
g71
NtRp1033
(dp1034
g74
(dp1035
sg83
g1020
sg76
(lp1036
g69
(g70
g71
NtRp1037
(dp1038
g74
(dp1039
g82
I4
ssg83
g1033
sg76
(lp1040
S'text/html,application/xhtml+xml,application/xml;q=0.9,*/*;q=0.8'
p1041
asbasbasbag69
(g85
g71
NtRp1042
(dp1043
g74
(dp1044
sg83
g860
sg76
(lp1045
g69
(g90
g71
NtRp1046
(dp1047
g74
(dp1048
g94
g95
ssg83
g1042
sg76
(lp1049
S'http_accept_encoding'
p1050
asbag69
(g90
g71
NtRp1051
(dp1052
g74
(dp1053
g101
g102
ssg83
g1042
sg76
(lp1054
S':'
asbag69
(g90
g71
NtRp1055
(dp1056
g74
(dp1057
sg83
g1042
sg76
(lp1058
g69
(g70
g71
NtRp1059
(dp1060
g74
(dp1061
g82
I4
ssg83
g1055
sg76
(lp1062
S'gzip, deflate'
p1063
asbasbasbag69
(g85
g71
NtRp1064
(dp1065
g74
(dp1066
sg83
g860
sg76
(lp1067
g69
(g90
g71
NtRp1068
(dp1069
g74
(dp1070
g94
g95
ssg83
g1064
sg76
(lp1071
S'http_accept_language'
p1072
asbag69
(g90
g71
NtRp1073
(dp1074
g74
(dp1075
g101
g102
ssg83
g1064
sg76
(lp1076
S':'
asbag69
(g90
g71
NtRp1077
(dp1078
g74
(dp1079
sg83
g1064
sg76
(lp1080
g69
(g70
g71
NtRp1081
(dp1082
g74
(dp1083
g82
I4
ssg83
g1077
sg76
(lp1084
S'en-us,en;q=0.5'
p1085
asbasbasbag69
(g85
g71
NtRp1086
(dp1087
g74
(dp1088
sg83
g860
sg76
(lp1089
g69
(g90
g71
NtRp1090
(dp1091
g74
(dp1092
g94
g95
ssg83
g1086
sg76
(lp1093
S'http_connection'
p1094
asbag69
(g90
g71
NtRp1095
(dp1096
g74
(dp1097
g101
g102
ssg83
g1086
sg76
(lp1098
S':'
asbag69
(g90
g71
NtRp1099
(dp1100
g74
(dp1101
sg83
g1086
sg76
(lp1102
g69
(g70
g71
NtRp1103
(dp1104
g74
(dp1105
g82
I4
ssg83
g1099
sg76
(lp1106
S'keep-alive'
p1107
asbasbasbag69
(g85
g71
NtRp1108
(dp1109
g74
(dp1110
sg83
g860
sg76
(lp1111
g69
(g90
g71
NtRp1112
(dp1113
g74
(dp1114
g94
g95
ssg83
g1108
sg76
(lp1115
S'http_cookie'
p1116
asbag69
(g90
g71
NtRp1117
(dp1118
g74
(dp1119
g101
g102
ssg83
g1108
sg76
(lp1120
S':'
asbag69
(g90
g71
NtRp1121
(dp1122
g74
(dp1123
sg83
g1108
sg76
(lp1124
g69
(g70
g71
NtRp1125
(dp1126
g74
(dp1127
g82
I4
ssg83
g1121
sg76
(lp1128
S'session_id_welcome=127.0.0.1-52fd3373-673a-44b6-88fd-088b822ab862; session_id_admin=127.0.0.1-86f48727-bb4f-4563-9c3d-94ae551afcd6; session_id_photoupload=127.0.0.1-9fd386b1-b6c5-48c9-8c33-9898e4cb9ce1'
p1129
asbasbasbag69
(g85
g71
NtRp1130
(dp1131
g74
(dp1132
sg83
g860
sg76
(lp1133
g69
(g90
g71
NtRp1134
(dp1135
g74
(dp1136
g94
g95
ssg83
g1130
sg76
(lp1137
S'http_host'
p1138
asbag69
(g90
g71
NtRp1139
(dp1140
g74
(dp1141
g101
g102
ssg83
g1130
sg76
(lp1142
S':'
asbag69
(g90
g71
NtRp1143
(dp1144
g74
(dp1145
sg83
g1130
sg76
(lp1146
g69
(g70
g71
NtRp1147
(dp1148
g74
(dp1149
g82
I4
ssg83
g1143
sg76
(lp1150
S'127.0.0.1:8000'
p1151
asbasbasbag69
(g85
g71
NtRp1152
(dp1153
g74
(dp1154
sg83
g860
sg76
(lp1155
g69
(g90
g71
NtRp1156
(dp1157
g74
(dp1158
g94
g95
ssg83
g1152
sg76
(lp1159
S'http_referer'
p1160
asbag69
(g90
g71
NtRp1161
(dp1162
g74
(dp1163
g101
g102
ssg83
g1152
sg76
(lp1164
S':'
asbag69
(g90
g71
NtRp1165
(dp1166
g74
(dp1167
sg83
g1152
sg76
(lp1168
g69
(g70
g71
NtRp1169
(dp1170
g74
(dp1171
g82
I4
ssg83
g1165
sg76
(lp1172
S'http://127.0.0.1:8000/PhotoUpload/appadmin/index'
p1173
asbasbasbag69
(g85
g71
NtRp1174
(dp1175
g74
(dp1176
sg83
g860
sg76
(lp1177
g69
(g90
g71
NtRp1178
(dp1179
g74
(dp1180
g94
g95
ssg83
g1174
sg76
(lp1181
S'http_user_agent'
p1182
asbag69
(g90
g71
NtRp1183
(dp1184
g74
(dp1185
g101
g102
ssg83
g1174
sg76
(lp1186
S':'
asbag69
(g90
g71
NtRp1187
(dp1188
g74
(dp1189
sg83
g1174
sg76
(lp1190
g69
(g70
g71
NtRp1191
(dp1192
g74
(dp1193
g82
I4
ssg83
g1187
sg76
(lp1194
S'Mozilla/5.0 (X11; Ubuntu; Linux x86_64; rv:15.0) Gecko/20100101 Firefox/15.0'
p1195
asbasbasbag69
(g85
g71
NtRp1196
(dp1197
g74
(dp1198
sg83
g860
sg76
(lp1199
g69
(g90
g71
NtRp1200
(dp1201
g74
(dp1202
g94
g95
ssg83
g1196
sg76
(lp1203
S'is_jython'
p1204
asbag69
(g90
g71
NtRp1205
(dp1206
g74
(dp1207
g101
g102
ssg83
g1196
sg76
(lp1208
S':'
asbag69
(g90
g71
NtRp1209
(dp1210
g74
(dp1211
sg83
g1196
sg76
(lp1212
g69
(g70
g71
NtRp1213
(dp1214
g74
(dp1215
g82
I4
ssg83
g1209
sg76
(lp1216
g112
asbasbasbag69
(g85
g71
NtRp1217
(dp1218
g74
(dp1219
sg83
g860
sg76
(lp1220
g69
(g90
g71
NtRp1221
(dp1222
g74
(dp1223
g94
g95
ssg83
g1217
sg76
(lp1224
S'is_pypy'
p1225
asbag69
(g90
g71
NtRp1226
(dp1227
g74
(dp1228
g101
g102
ssg83
g1217
sg76
(lp1229
S':'
asbag69
(g90
g71
NtRp1230
(dp1231
g74
(dp1232
sg83
g1217
sg76
(lp1233
g69
(g70
g71
NtRp1234
(dp1235
g74
(dp1236
g82
I4
ssg83
g1230
sg76
(lp1237
g112
asbasbasbag69
(g85
g71
NtRp1238
(dp1239
g74
(dp1240
sg83
g860
sg76
(lp1241
g69
(g90
g71
NtRp1242
(dp1243
g74
(dp1244
g94
g95
ssg83
g1238
sg76
(lp1245
S'path_info'
p1246
asbag69
(g90
g71
NtRp1247
(dp1248
g74
(dp1249
g101
g102
ssg83
g1238
sg76
(lp1250
S':'
asbag69
(g90
g71
NtRp1251
(dp1252
g74
(dp1253
sg83
g1238
sg76
(lp1254
g69
(g70
g71
NtRp1255
(dp1256
g74
(dp1257
g82
I4
ssg83
g1251
sg76
(lp1258
S'/PhotoUpload/appadmin/insert/db/auth_user'
p1259
asbasbasbag69
(g85
g71
NtRp1260
(dp1261
g74
(dp1262
sg83
g860
sg76
(lp1263
g69
(g90
g71
NtRp1264
(dp1265
g74
(dp1266
g94
g95
ssg83
g1260
sg76
(lp1267
S'query_string'
p1268
asbag69
(g90
g71
NtRp1269
(dp1270
g74
(dp1271
g101
g102
ssg83
g1260
sg76
(lp1272
S':'
asbag69
(g90
g71
NtRp1273
(dp1274
g74
(dp1275
sg83
g1260
sg76
(lp1276
g69
(g70
g71
NtRp1277
(dp1278
g74
(dp1279
g82
I4
ssg83
g1273
sg76
(lp1280
S''
asbasbasbag69
(g85
g71
NtRp1281
(dp1282
g74
(dp1283
sg83
g860
sg76
(lp1284
g69
(g90
g71
NtRp1285
(dp1286
g74
(dp1287
g94
g95
ssg83
g1281
sg76
(lp1288
S'remote_addr'
p1289
asbag69
(g90
g71
NtRp1290
(dp1291
g74
(dp1292
g101
g102
ssg83
g1281
sg76
(lp1293
S':'
asbag69
(g90
g71
NtRp1294
(dp1295
g74
(dp1296
sg83
g1281
sg76
(lp1297
g69
(g70
g71
NtRp1298
(dp1299
g74
(dp1300
g82
I4
ssg83
g1294
sg76
(lp1301
g228
asbasbasbag69
(g85
g71
NtRp1302
(dp1303
g74
(dp1304
sg83
g860
sg76
(lp1305
g69
(g90
g71
NtRp1306
(dp1307
g74
(dp1308
g94
g95
ssg83
g1302
sg76
(lp1309
S'remote_port'
p1310
asbag69
(g90
g71
NtRp1311
(dp1312
g74
(dp1313
g101
g102
ssg83
g1302
sg76
(lp1314
S':'
asbag69
(g90
g71
NtRp1315
(dp1316
g74
(dp1317
sg83
g1302
sg76
(lp1318
g69
(g70
g71
NtRp1319
(dp1320
g74
(dp1321
g82
I4
ssg83
g1315
sg76
(lp1322
S'55529'
p1323
asbasbasbag69
(g85
g71
NtRp1324
(dp1325
g74
(dp1326
sg83
g860
sg76
(lp1327
g69
(g90
g71
NtRp1328
(dp1329
g74
(dp1330
g94
g95
ssg83
g1324
sg76
(lp1331
S'request_method'
p1332
asbag69
(g90
g71
NtRp1333
(dp1334
g74
(dp1335
g101
g102
ssg83
g1324
sg76
(lp1336
S':'
asbag69
(g90
g71
NtRp1337
(dp1338
g74
(dp1339
sg83
g1324
sg76
(lp1340
g69
(g70
g71
NtRp1341
(dp1342
g74
(dp1343
g82
I4
ssg83
g1337
sg76
(lp1344
S'GET'
p1345
asbasbasbag69
(g85
g71
NtRp1346
(dp1347
g74
(dp1348
sg83
g860
sg76
(lp1349
g69
(g90
g71
NtRp1350
(dp1351
g74
(dp1352
g94
g95
ssg83
g1346
sg76
(lp1353
S'script_name'
p1354
asbag69
(g90
g71
NtRp1355
(dp1356
g74
(dp1357
g101
g102
ssg83
g1346
sg76
(lp1358
S':'
asbag69
(g90
g71
NtRp1359
(dp1360
g74
(dp1361
sg83
g1346
sg76
(lp1362
g69
(g70
g71
NtRp1363
(dp1364
g74
(dp1365
g82
I4
ssg83
g1359
sg76
(lp1366
S''
asbasbasbag69
(g85
g71
NtRp1367
(dp1368
g74
(dp1369
sg83
g860
sg76
(lp1370
g69
(g90
g71
NtRp1371
(dp1372
g74
(dp1373
g94
g95
ssg83
g1367
sg76
(lp1374
S'server_name'
p1375
asbag69
(g90
g71
NtRp1376
(dp1377
g74
(dp1378
g101
g102
ssg83
g1367
sg76
(lp1379
S':'
asbag69
(g90
g71
NtRp1380
(dp1381
g74
(dp1382
sg83
g1367
sg76
(lp1383
g69
(g70
g71
NtRp1384
(dp1385
g74
(dp1386
g82
I4
ssg83
g1380
sg76
(lp1387
S'ubuntu'
p1388
asbasbasbag69
(g85
g71
NtRp1389
(dp1390
g74
(dp1391
sg83
g860
sg76
(lp1392
g69
(g90
g71
NtRp1393
(dp1394
g74
(dp1395
g94
g95
ssg83
g1389
sg76
(lp1396
S'server_port'
p1397
asbag69
(g90
g71
NtRp1398
(dp1399
g74
(dp1400
g101
g102
ssg83
g1389
sg76
(lp1401
S':'
asbag69
(g90
g71
NtRp1402
(dp1403
g74
(dp1404
sg83
g1389
sg76
(lp1405
g69
(g70
g71
NtRp1406
(dp1407
g74
(dp1408
g82
I4
ssg83
g1402
sg76
(lp1409
S'8000'
p1410
asbasbasbag69
(g85
g71
NtRp1411
(dp1412
g74
(dp1413
sg83
g860
sg76
(lp1414
g69
(g90
g71
NtRp1415
(dp1416
g74
(dp1417
g94
g95
ssg83
g1411
sg76
(lp1418
S'server_protocol'
p1419
asbag69
(g90
g71
NtRp1420
(dp1421
g74
(dp1422
g101
g102
ssg83
g1411
sg76
(lp1423
S':'
asbag69
(g90
g71
NtRp1424
(dp1425
g74
(dp1426
sg83
g1411
sg76
(lp1427
g69
(g70
g71
NtRp1428
(dp1429
g74
(dp1430
g82
I4
ssg83
g1424
sg76
(lp1431
S'HTTP/1.1'
p1432
asbasbasbag69
(g85
g71
NtRp1433
(dp1434
g74
(dp1435
sg83
g860
sg76
(lp1436
g69
(g90
g71
NtRp1437
(dp1438
g74
(dp1439
g94
g95
ssg83
g1433
sg76
(lp1440
S'server_software'
p1441
asbag69
(g90
g71
NtRp1442
(dp1443
g74
(dp1444
g101
g102
ssg83
g1433
sg76
(lp1445
S':'
asbag69
(g90
g71
NtRp1446
(dp1447
g74
(dp1448
sg83
g1433
sg76
(lp1449
g69
(g70
g71
NtRp1450
(dp1451
g74
(dp1452
g82
I4
ssg83
g1446
sg76
(lp1453
S'Rocket 1.2.4'
p1454
asbasbasbag69
(g85
g71
NtRp1455
(dp1456
g74
(dp1457
sg83
g860
sg76
(lp1458
g69
(g90
g71
NtRp1459
(dp1460
g74
(dp1461
g94
g95
ssg83
g1455
sg76
(lp1462
S'web2py_crontype'
p1463
asbag69
(g90
g71
NtRp1464
(dp1465
g74
(dp1466
g101
g102
ssg83
g1455
sg76
(lp1467
S':'
asbag69
(g90
g71
NtRp1468
(dp1469
g74
(dp1470
sg83
g1455
sg76
(lp1471
g69
(g70
g71
NtRp1472
(dp1473
g74
(dp1474
g82
I4
ssg83
g1468
sg76
(lp1475
S'hard'
p1476
asbasbasbag69
(g85
g71
NtRp1477
(dp1478
g74
(dp1479
sg83
g860
sg76
(lp1480
g69
(g90
g71
NtRp1481
(dp1482
g74
(dp1483
g94
g95
ssg83
g1477
sg76
(lp1484
S'web2py_path'
p1485
asbag69
(g90
g71
NtRp1486
(dp1487
g74
(dp1488
g101
g102
ssg83
g1477
sg76
(lp1489
S':'
asbag69
(g90
g71
NtRp1490
(dp1491
g74
(dp1492
sg83
g1477
sg76
(lp1493
g69
(g70
g71
NtRp1494
(dp1495
g74
(dp1496
g82
I4
ssg83
g1490
sg76
(lp1497
g907
asbasbasbag69
(g85
g71
NtRp1498
(dp1499
g74
(dp1500
sg83
g860
sg76
(lp1501
g69
(g90
g71
NtRp1502
(dp1503
g74
(dp1504
g94
g95
ssg83
g1498
sg76
(lp1505
S'web2py_version'
p1506
asbag69
(g90
g71
NtRp1507
(dp1508
g74
(dp1509
g101
g102
ssg83
g1498
sg76
(lp1510
S':'
asbag69
(g90
g71
NtRp1511
(dp1512
g74
(dp1513
sg83
g1498
sg76
(lp1514
g69
(g70
g71
NtRp1515
(dp1516
g74
(dp1517
g82
I4
ssg83
g1511
sg76
(lp1518
g69
(g78
g71
NtRp1519
(dp1520
g74
(dp1521
g82
I3
ssg83
Nsg76
(lp1522
g69
(g85
g71
NtRp1523
(dp1524
g74
(dp1525
sg83
g1519
sg76
(lp1526
g69
(g90
g71
NtRp1527
(dp1528
g74
(dp1529
sg83
g1523
sg76
(lp1530
g69
(g70
g71
NtRp1531
(dp1532
g74
(dp1533
g82
I3
ssg83
g1527
sg76
(lp1534
S'1'
asbasbasbag69
(g85
g71
NtRp1535
(dp1536
g74
(dp1537
sg83
g1519
sg76
(lp1538
g69
(g90
g71
NtRp1539
(dp1540
g74
(dp1541
sg83
g1535
sg76
(lp1542
g69
(g70
g71
NtRp1543
(dp1544
g74
(dp1545
g82
I3
ssg83
g1539
sg76
(lp1546
S'99'
p1547
asbasbasbag69
(g85
g71
NtRp1548
(dp1549
g74
(dp1550
sg83
g1519
sg76
(lp1551
g69
(g90
g71
NtRp1552
(dp1553
g74
(dp1554
sg83
g1548
sg76
(lp1555
g69
(g70
g71
NtRp1556
(dp1557
g74
(dp1558
g82
I3
ssg83
g1552
sg76
(lp1559
S'7'
asbasbasbag69
(g85
g71
NtRp1560
(dp1561
g74
(dp1562
sg83
g1519
sg76
(lp1563
g69
(g90
g71
NtRp1564
(dp1565
g74
(dp1566
sg83
g1560
sg76
(lp1567
g69
(g70
g71
NtRp1568
(dp1569
g74
(dp1570
g82
I3
ssg83
g1564
sg76
(lp1571
S'datetime.datetime(2012, 3, 4, 22, 12, 8)'
p1572
asbasbasbag69
(g85
g71
NtRp1573
(dp1574
g74
(dp1575
sg83
g1519
sg76
(lp1576
g69
(g90
g71
NtRp1577
(dp1578
g74
(dp1579
sg83
g1573
sg76
(lp1580
g69
(g70
g71
NtRp1581
(dp1582
g74
(dp1583
g82
I3
ssg83
g1577
sg76
(lp1584
S'stable'
p1585
asbasbasbasbasbasbasbag69
(g85
g71
NtRp1586
(dp1587
g74
(dp1588
sg83
g860
sg76
(lp1589
g69
(g90
g71
NtRp1590
(dp1591
g74
(dp1592
g94
g95
ssg83
g1586
sg76
(lp1593
S'wsgi_errors'
p1594
asbag69
(g90
g71
NtRp1595
(dp1596
g74
(dp1597
g101
g102
ssg83
g1586
sg76
(lp1598
S':'
asbag69
(g90
g71
NtRp1599
(dp1600
g74
(dp1601
sg83
g1586
sg76
(lp1602
g69
(g70
g71
NtRp1603
(dp1604
g74
(dp1605
g82
I4
ssg83
g1599
sg76
(lp1606
S"<open file '<stderr>', mode 'w' at 0x7f1bfdeb0270>"
p1607
asbasbasbag69
(g85
g71
NtRp1608
(dp1609
g74
(dp1610
sg83
g860
sg76
(lp1611
g69
(g90
g71
NtRp1612
(dp1613
g74
(dp1614
g94
g95
ssg83
g1608
sg76
(lp1615
S'wsgi_file_wrapper'
p1616
asbag69
(g90
g71
NtRp1617
(dp1618
g74
(dp1619
g101
g102
ssg83
g1608
sg76
(lp1620
S':'
asbag69
(g90
g71
NtRp1621
(dp1622
g74
(dp1623
sg83
g1608
sg76
(lp1624
g69
(g70
g71
NtRp1625
(dp1626
g74
(dp1627
g82
I4
ssg83
g1621
sg76
(lp1628
S'<class wsgiref.util.FileWrapper at 0x1fa7c18>'
p1629
asbasbasbag69
(g85
g71
NtRp1630
(dp1631
g74
(dp1632
sg83
g860
sg76
(lp1633
g69
(g90
g71
NtRp1634
(dp1635
g74
(dp1636
g94
g95
ssg83
g1630
sg76
(lp1637
S'wsgi_input'
p1638
asbag69
(g90
g71
NtRp1639
(dp1640
g74
(dp1641
g101
g102
ssg83
g1630
sg76
(lp1642
S':'
asbag69
(g90
g71
NtRp1643
(dp1644
g74
(dp1645
sg83
g1630
sg76
(lp1646
g69
(g70
g71
NtRp1647
(dp1648
g74
(dp1649
g82
I4
ssg83
g1643
sg76
(lp1650
S'<socket._fileobject object at 0x7f1bec441bd0>'
p1651
asbasbasbag69
(g85
g71
NtRp1652
(dp1653
g74
(dp1654
sg83
g860
sg76
(lp1655
g69
(g90
g71
NtRp1656
(dp1657
g74
(dp1658
g94
g95
ssg83
g1652
sg76
(lp1659
S'wsgi_multiprocess'
p1660
asbag69
(g90
g71
NtRp1661
(dp1662
g74
(dp1663
g101
g102
ssg83
g1652
sg76
(lp1664
S':'
asbag69
(g90
g71
NtRp1665
(dp1666
g74
(dp1667
sg83
g1652
sg76
(lp1668
g69
(g70
g71
NtRp1669
(dp1670
g74
(dp1671
g82
I4
ssg83
g1665
sg76
(lp1672
g112
asbasbasbag69
(g85
g71
NtRp1673
(dp1674
g74
(dp1675
sg83
g860
sg76
(lp1676
g69
(g90
g71
NtRp1677
(dp1678
g74
(dp1679
g94
g95
ssg83
g1673
sg76
(lp1680
S'wsgi_multithread'
p1681
asbag69
(g90
g71
NtRp1682
(dp1683
g74
(dp1684
g101
g102
ssg83
g1673
sg76
(lp1685
S':'
asbag69
(g90
g71
NtRp1686
(dp1687
g74
(dp1688
sg83
g1673
sg76
(lp1689
g69
(g70
g71
NtRp1690
(dp1691
g74
(dp1692
g82
I4
ssg83
g1686
sg76
(lp1693
S'True'
p1694
asbasbasbag69
(g85
g71
NtRp1695
(dp1696
g74
(dp1697
sg83
g860
sg76
(lp1698
g69
(g90
g71
NtRp1699
(dp1700
g74
(dp1701
g94
g95
ssg83
g1695
sg76
(lp1702
S'wsgi_run_once'
p1703
asbag69
(g90
g71
NtRp1704
(dp1705
g74
(dp1706
g101
g102
ssg83
g1695
sg76
(lp1707
S':'
asbag69
(g90
g71
NtRp1708
(dp1709
g74
(dp1710
sg83
g1695
sg76
(lp1711
g69
(g70
g71
NtRp1712
(dp1713
g74
(dp1714
g82
I4
ssg83
g1708
sg76
(lp1715
g112
asbasbasbag69
(g85
g71
NtRp1716
(dp1717
g74
(dp1718
sg83
g860
sg76
(lp1719
g69
(g90
g71
NtRp1720
(dp1721
g74
(dp1722
g94
g95
ssg83
g1716
sg76
(lp1723
S'wsgi_url_scheme'
p1724
asbag69
(g90
g71
NtRp1725
(dp1726
g74
(dp1727
g101
g102
ssg83
g1716
sg76
(lp1728
S':'
asbag69
(g90
g71
NtRp1729
(dp1730
g74
(dp1731
sg83
g1716
sg76
(lp1732
g69
(g70
g71
NtRp1733
(dp1734
g74
(dp1735
g82
I4
ssg83
g1729
sg76
(lp1736
S'http'
p1737
asbasbasbag69
(g85
g71
NtRp1738
(dp1739
g74
(dp1740
sg83
g860
sg76
(lp1741
g69
(g90
g71
NtRp1742
(dp1743
g74
(dp1744
g94
g95
ssg83
g1738
sg76
(lp1745
S'wsgi_version'
p1746
asbag69
(g90
g71
NtRp1747
(dp1748
g74
(dp1749
g101
g102
ssg83
g1738
sg76
(lp1750
S':'
asbag69
(g90
g71
NtRp1751
(dp1752
g74
(dp1753
sg83
g1738
sg76
(lp1754
g69
(g70
g71
NtRp1755
(dp1756
g74
(dp1757
g82
I4
ssg83
g1751
sg76
(lp1758
g69
(g78
g71
NtRp1759
(dp1760
g74
(dp1761
g82
I3
ssg83
Nsg76
(lp1762
g69
(g85
g71
NtRp1763
(dp1764
g74
(dp1765
sg83
g1759
sg76
(lp1766
g69
(g90
g71
NtRp1767
(dp1768
g74
(dp1769
sg83
g1763
sg76
(lp1770
g69
(g70
g71
NtRp1771
(dp1772
g74
(dp1773
g82
I3
ssg83
g1767
sg76
(lp1774
S'1'
asbasbasbag69
(g85
g71
NtRp1775
(dp1776
g74
(dp1777
sg83
g1759
sg76
(lp1778
g69
(g90
g71
NtRp1779
(dp1780
g74
(dp1781
sg83
g1775
sg76
(lp1782
g69
(g70
g71
NtRp1783
(dp1784
g74
(dp1785
g82
I3
ssg83
g1779
sg76
(lp1786
S'0'
asbasbasbasbasbasbasbasbasbasbasbag69
(g85
g71
NtRp1787
(dp1788
g74
(dp1789
sg83
g79
sg76
(lp1790
g69
(g90
g71
NtRp1791
(dp1792
g74
(dp1793
g94
g95
ssg83
g1787
sg76
(lp1794
S'extension'
p1795
asbag69
(g90
g71
NtRp1796
(dp1797
g74
(dp1798
g101
g102
ssg83
g1787
sg76
(lp1799
S':'
asbag69
(g90
g71
NtRp1800
(dp1801
g74
(dp1802
sg83
g1787
sg76
(lp1803
g69
(g70
g71
NtRp1804
(dp1805
g74
(dp1806
g82
I5
ssg83
g1800
sg76
(lp1807
S'html'
p1808
asbasbasbag69
(g85
g71
NtRp1809
(dp1810
g74
(dp1811
sg83
g79
sg76
(lp1812
g69
(g90
g71
NtRp1813
(dp1814
g74
(dp1815
g94
g95
ssg83
g1809
sg76
(lp1816
S'folder'
p1817
asbag69
(g90
g71
NtRp1818
(dp1819
g74
(dp1820
g101
g102
ssg83
g1809
sg76
(lp1821
S':'
asbag69
(g90
g71
NtRp1822
(dp1823
g74
(dp1824
sg83
g1809
sg76
(lp1825
g69
(g70
g71
NtRp1826
(dp1827
g74
(dp1828
g82
I5
ssg83
g1822
sg76
(lp1829
S'/home/sheetal/web2py/applications/PhotoUpload/'
p1830
asbasbasbag69
(g85
g71
NtRp1831
(dp1832
g74
(dp1833
sg83
g79
sg76
(lp1834
g69
(g90
g71
NtRp1835
(dp1836
g74
(dp1837
g94
g95
ssg83
g1831
sg76
(lp1838
S'function'
p1839
asbag69
(g90
g71
NtRp1840
(dp1841
g74
(dp1842
g101
g102
ssg83
g1831
sg76
(lp1843
S':'
asbag69
(g90
g71
NtRp1844
(dp1845
g74
(dp1846
sg83
g1831
sg76
(lp1847
g69
(g70
g71
NtRp1848
(dp1849
g74
(dp1850
g82
I5
ssg83
g1844
sg76
(lp1851
S'insert'
p1852
asbasbasbag69
(g85
g71
NtRp1853
(dp1854
g74
(dp1855
sg83
g79
sg76
(lp1856
g69
(g90
g71
NtRp1857
(dp1858
g74
(dp1859
g94
g95
ssg83
g1853
sg76
(lp1860
S'get_vars'
p1861
asbag69
(g90
g71
NtRp1862
(dp1863
g74
(dp1864
g101
g102
ssg83
g1853
sg76
(lp1865
S':'
asbag69
(g90
g71
NtRp1866
(dp1867
g74
(dp1868
sg83
g1853
sg76
(lp1869
g69
(g70
g71
NtRp1870
(dp1871
g74
(dp1872
g82
I5
ssg83
g1866
sg76
(lp1873
g69
(g78
g71
NtRp1874
(dp1875
g74
(dp1876
g82
I4
ssg83
Nsg76
(lp1877
sbasbasbasbag69
(g85
g71
NtRp1878
(dp1879
g74
(dp1880
sg83
g79
sg76
(lp1881
g69
(g90
g71
NtRp1882
(dp1883
g74
(dp1884
g94
g95
ssg83
g1878
sg76
(lp1885
S'global_settings'
p1886
asbag69
(g90
g71
NtRp1887
(dp1888
g74
(dp1889
g101
g102
ssg83
g1878
sg76
(lp1890
S':'
asbag69
(g90
g71
NtRp1891
(dp1892
g74
(dp1893
sg83
g1878
sg76
(lp1894
g69
(g70
g71
NtRp1895
(dp1896
g74
(dp1897
g82
I5
ssg83
g1891
sg76
(lp1898
g69
(g78
g71
NtRp1899
(dp1900
g74
(dp1901
g82
I4
ssg83
Nsg76
(lp1902
g69
(g85
g71
NtRp1903
(dp1904
g74
(dp1905
sg83
g1899
sg76
(lp1906
g69
(g90
g71
NtRp1907
(dp1908
g74
(dp1909
g94
g95
ssg83
g1903
sg76
(lp1910
g872
asbag69
(g90
g71
NtRp1911
(dp1912
g74
(dp1913
g101
g102
ssg83
g1903
sg76
(lp1914
S':'
asbag69
(g90
g71
NtRp1915
(dp1916
g74
(dp1917
sg83
g1903
sg76
(lp1918
g69
(g70
g71
NtRp1919
(dp1920
g74
(dp1921
g82
I4
ssg83
g1915
sg76
(lp1922
S"set(['/home/sheetal/web2py/applications/PhotoUpload/', '/home/sheetal/web2py/applications/admin/', '/home/sheetal/web2py/applications/welcome/'])"
p1923
asbasbasbag69
(g85
g71
NtRp1924
(dp1925
g74
(dp1926
sg83
g1899
sg76
(lp1927
g69
(g90
g71
NtRp1928
(dp1929
g74
(dp1930
g94
g95
ssg83
g1924
sg76
(lp1931
g894
asbag69
(g90
g71
NtRp1932
(dp1933
g74
(dp1934
g101
g102
ssg83
g1924
sg76
(lp1935
S':'
asbag69
(g90
g71
NtRp1936
(dp1937
g74
(dp1938
sg83
g1924
sg76
(lp1939
g69
(g70
g71
NtRp1940
(dp1941
g74
(dp1942
g82
I4
ssg83
g1936
sg76
(lp1943
g907
asbasbasbag69
(g85
g71
NtRp1944
(dp1945
g74
(dp1946
sg83
g1899
sg76
(lp1947
g69
(g90
g71
NtRp1948
(dp1949
g74
(dp1950
g94
g95
ssg83
g1944
sg76
(lp1951
g916
asbag69
(g90
g71
NtRp1952
(dp1953
g74
(dp1954
g101
g102
ssg83
g1944
sg76
(lp1955
S':'
asbag69
(g90
g71
NtRp1956
(dp1957
g74
(dp1958
sg83
g1944
sg76
(lp1959
g69
(g70
g71
NtRp1960
(dp1961
g74
(dp1962
g82
I4
ssg83
g1956
sg76
(lp1963
g69
(g78
g71
NtRp1964
(dp1965
g74
(dp1966
g82
I3
ssg83
Nsg76
(lp1967
sbasbasbasbag69
(g85
g71
NtRp1968
(dp1969
g74
(dp1970
sg83
g1899
sg76
(lp1971
g69
(g90
g71
NtRp1972
(dp1973
g74
(dp1974
g94
g95
ssg83
g1968
sg76
(lp1975
g941
asbag69
(g90
g71
NtRp1976
(dp1977
g74
(dp1978
g101
g102
ssg83
g1968
sg76
(lp1979
S':'
asbag69
(g90
g71
NtRp1980
(dp1981
g74
(dp1982
sg83
g1968
sg76
(lp1983
g69
(g70
g71
NtRp1984
(dp1985
g74
(dp1986
g82
I4
ssg83
g1980
sg76
(lp1987
S"<Values at 0x2837cf8: {'verbose': False, 'ip': '127.0.0.1', 'shutdown_timeout': 5, 'taskbar': False, 'nocron': False, 'pid_filename': 'httpserver.pid', 'maxthreads': None, 'softcron': False, 'server_name': 'ubuntu', 'bpython': False, 'nogui': False, 'port': 8000, 'extcron': False, 'debuglevel': 30, 'test': None, 'folder': '/home/sheetal/web2py', 'config': '', 'import_models': False, 'winservice': '', 'shell': None, 'run': '', 'log_filename': 'httpserver.log', 'args': [''], 'socket_timeout': 5, 'ssl_ca_certificate': None, 'scheduler': None, 'profiler_filename': None, 'ssl_private_key': '', 'password': 'qwe123', 'request_queue_size': 5, 'ssl_certificate': '', 'cronjob': False, 'numthreads': None, 'quiet': False, 'interfaces': None, 'minthreads': None, 'timeout': 10, 'plain': False, 'nobanner': False}>"
p1988
asbasbasbag69
(g85
g71
NtRp1989
(dp1990
g74
(dp1991
sg83
g1899
sg76
(lp1992
g69
(g90
g71
NtRp1993
(dp1994
g74
(dp1995
g94
g95
ssg83
g1989
sg76
(lp1996
g963
asbag69
(g90
g71
NtRp1997
(dp1998
g74
(dp1999
g101
g102
ssg83
g1989
sg76
(lp2000
S':'
asbag69
(g90
g71
NtRp2001
(dp2002
g74
(dp2003
sg83
g1989
sg76
(lp2004
g69
(g70
g71
NtRp2005
(dp2006
g74
(dp2007
g82
I4
ssg83
g2001
sg76
(lp2008
S'set([])'
p2009
asbasbasbag69
(g85
g71
NtRp2010
(dp2011
g74
(dp2012
sg83
g1899
sg76
(lp2013
g69
(g90
g71
NtRp2014
(dp2015
g74
(dp2016
g94
g95
ssg83
g2010
sg76
(lp2017
g985
asbag69
(g90
g71
NtRp2018
(dp2019
g74
(dp2020
g101
g102
ssg83
g2010
sg76
(lp2021
S':'
asbag69
(g90
g71
NtRp2022
(dp2023
g74
(dp2024
sg83
g2010
sg76
(lp2025
g69
(g70
g71
NtRp2026
(dp2027
g74
(dp2028
g82
I4
ssg83
g2022
sg76
(lp2029
g112
asbasbasbag69
(g85
g71
NtRp2030
(dp2031
g74
(dp2032
sg83
g1899
sg76
(lp2033
g69
(g90
g71
NtRp2034
(dp2035
g74
(dp2036
g94
g95
ssg83
g2030
sg76
(lp2037
g1006
asbag69
(g90
g71
NtRp2038
(dp2039
g74
(dp2040
g101
g102
ssg83
g2030
sg76
(lp2041
S':'
asbag69
(g90
g71
NtRp2042
(dp2043
g74
(dp2044
sg83
g2030
sg76
(lp2045
g69
(g70
g71
NtRp2046
(dp2047
g74
(dp2048
g82
I4
ssg83
g2042
sg76
(lp2049
g1019
asbasbasbag69
(g85
g71
NtRp2050
(dp2051
g74
(dp2052
sg83
g1899
sg76
(lp2053
g69
(g90
g71
NtRp2054
(dp2055
g74
(dp2056
g94
g95
ssg83
g2050
sg76
(lp2057
g1204
asbag69
(g90
g71
NtRp2058
(dp2059
g74
(dp2060
g101
g102
ssg83
g2050
sg76
(lp2061
S':'
asbag69
(g90
g71
NtRp2062
(dp2063
g74
(dp2064
sg83
g2050
sg76
(lp2065
g69
(g70
g71
NtRp2066
(dp2067
g74
(dp2068
g82
I4
ssg83
g2062
sg76
(lp2069
g112
asbasbasbag69
(g85
g71
NtRp2070
(dp2071
g74
(dp2072
sg83
g1899
sg76
(lp2073
g69
(g90
g71
NtRp2074
(dp2075
g74
(dp2076
g94
g95
ssg83
g2070
sg76
(lp2077
g1225
asbag69
(g90
g71
NtRp2078
(dp2079
g74
(dp2080
g101
g102
ssg83
g2070
sg76
(lp2081
S':'
asbag69
(g90
g71
NtRp2082
(dp2083
g74
(dp2084
sg83
g2070
sg76
(lp2085
g69
(g70
g71
NtRp2086
(dp2087
g74
(dp2088
g82
I4
ssg83
g2082
sg76
(lp2089
g112
asbasbasbag69
(g85
g71
NtRp2090
(dp2091
g74
(dp2092
sg83
g1899
sg76
(lp2093
g69
(g90
g71
NtRp2094
(dp2095
g74
(dp2096
g94
g95
ssg83
g2090
sg76
(lp2097
g1463
asbag69
(g90
g71
NtRp2098
(dp2099
g74
(dp2100
g101
g102
ssg83
g2090
sg76
(lp2101
S':'
asbag69
(g90
g71
NtRp2102
(dp2103
g74
(dp2104
sg83
g2090
sg76
(lp2105
g69
(g70
g71
NtRp2106
(dp2107
g74
(dp2108
g82
I4
ssg83
g2102
sg76
(lp2109
g1476
asbasbasbag69
(g85
g71
NtRp2110
(dp2111
g74
(dp2112
sg83
g1899
sg76
(lp2113
g69
(g90
g71
NtRp2114
(dp2115
g74
(dp2116
g94
g95
ssg83
g2110
sg76
(lp2117
g1506
asbag69
(g90
g71
NtRp2118
(dp2119
g74
(dp2120
g101
g102
ssg83
g2110
sg76
(lp2121
S':'
asbag69
(g90
g71
NtRp2122
(dp2123
g74
(dp2124
sg83
g2110
sg76
(lp2125
g69
(g70
g71
NtRp2126
(dp2127
g74
(dp2128
g82
I4
ssg83
g2122
sg76
(lp2129
g69
(g78
g71
NtRp2130
(dp2131
g74
(dp2132
g82
I3
ssg83
Nsg76
(lp2133
g69
(g85
g71
NtRp2134
(dp2135
g74
(dp2136
sg83
g2130
sg76
(lp2137
g69
(g90
g71
NtRp2138
(dp2139
g74
(dp2140
sg83
g2134
sg76
(lp2141
g69
(g70
g71
NtRp2142
(dp2143
g74
(dp2144
g82
I3
ssg83
g2138
sg76
(lp2145
S'1'
asbasbasbag69
(g85
g71
NtRp2146
(dp2147
g74
(dp2148
sg83
g2130
sg76
(lp2149
g69
(g90
g71
NtRp2150
(dp2151
g74
(dp2152
sg83
g2146
sg76
(lp2153
g69
(g70
g71
NtRp2154
(dp2155
g74
(dp2156
g82
I3
ssg83
g2150
sg76
(lp2157
S'99'
p2158
asbasbasbag69
(g85
g71
NtRp2159
(dp2160
g74
(dp2161
sg83
g2130
sg76
(lp2162
g69
(g90
g71
NtRp2163
(dp2164
g74
(dp2165
sg83
g2159
sg76
(lp2166
g69
(g70
g71
NtRp2167
(dp2168
g74
(dp2169
g82
I3
ssg83
g2163
sg76
(lp2170
S'7'
asbasbasbag69
(g85
g71
NtRp2171
(dp2172
g74
(dp2173
sg83
g2130
sg76
(lp2174
g69
(g90
g71
NtRp2175
(dp2176
g74
(dp2177
sg83
g2171
sg76
(lp2178
g69
(g70
g71
NtRp2179
(dp2180
g74
(dp2181
g82
I3
ssg83
g2175
sg76
(lp2182
S'datetime.datetime(2012, 3, 4, 22, 12, 8)'
p2183
asbasbasbag69
(g85
g71
NtRp2184
(dp2185
g74
(dp2186
sg83
g2130
sg76
(lp2187
g69
(g90
g71
NtRp2188
(dp2189
g74
(dp2190
sg83
g2184
sg76
(lp2191
g69
(g70
g71
NtRp2192
(dp2193
g74
(dp2194
g82
I3
ssg83
g2188
sg76
(lp2195
g1585
asbasbasbasbasbasbasbasbasbasbasbag69
(g85
g71
NtRp2196
(dp2197
g74
(dp2198
sg83
g79
sg76
(lp2199
g69
(g90
g71
NtRp2200
(dp2201
g74
(dp2202
g94
g95
ssg83
g2196
sg76
(lp2203
S'is_https'
p2204
asbag69
(g90
g71
NtRp2205
(dp2206
g74
(dp2207
g101
g102
ssg83
g2196
sg76
(lp2208
S':'
asbag69
(g90
g71
NtRp2209
(dp2210
g74
(dp2211
sg83
g2196
sg76
(lp2212
g69
(g70
g71
NtRp2213
(dp2214
g74
(dp2215
g82
I5
ssg83
g2209
sg76
(lp2216
g112
asbasbasbag69
(g85
g71
NtRp2217
(dp2218
g74
(dp2219
sg83
g79
sg76
(lp2220
g69
(g90
g71
NtRp2221
(dp2222
g74
(dp2223
g94
g95
ssg83
g2217
sg76
(lp2224
S'is_local'
p2225
asbag69
(g90
g71
NtRp2226
(dp2227
g74
(dp2228
g101
g102
ssg83
g2217
sg76
(lp2229
S':'
asbag69
(g90
g71
NtRp2230
(dp2231
g74
(dp2232
sg83
g2217
sg76
(lp2233
g69
(g70
g71
NtRp2234
(dp2235
g74
(dp2236
g82
I5
ssg83
g2230
sg76
(lp2237
g1694
asbasbasbag69
(g85
g71
NtRp2238
(dp2239
g74
(dp2240
sg83
g79
sg76
(lp2241
g69
(g90
g71
NtRp2242
(dp2243
g74
(dp2244
g94
g95
ssg83
g2238
sg76
(lp2245
S'is_restful'
p2246
asbag69
(g90
g71
NtRp2247
(dp2248
g74
(dp2249
g101
g102
ssg83
g2238
sg76
(lp2250
S':'
asbag69
(g90
g71
NtRp2251
(dp2252
g74
(dp2253
sg83
g2238
sg76
(lp2254
g69
(g70
g71
NtRp2255
(dp2256
g74
(dp2257
g82
I5
ssg83
g2251
sg76
(lp2258
g112
asbasbasbag69
(g85
g71
NtRp2259
(dp2260
g74
(dp2261
sg83
g79
sg76
(lp2262
g69
(g90
g71
NtRp2263
(dp2264
g74
(dp2265
g94
g95
ssg83
g2259
sg76
(lp2266
S'now'
p2267
asbag69
(g90
g71
NtRp2268
(dp2269
g74
(dp2270
g101
g102
ssg83
g2259
sg76
(lp2271
S':'
asbag69
(g90
g71
NtRp2272
(dp2273
g74
(dp2274
sg83
g2259
sg76
(lp2275
g69
(g70
g71
NtRp2276
(dp2277
g74
(dp2278
g82
I5
ssg83
g2272
sg76
(lp2279
S'datetime.datetime(2012, 8, 29, 23, 45, 27, 23354)'
p2280
asbasbasbag69
(g85
g71
NtRp2281
(dp2282
g74
(dp2283
sg83
g79
sg76
(lp2284
g69
(g90
g71
NtRp2285
(dp2286
g74
(dp2287
g94
g95
ssg83
g2281
sg76
(lp2288
S'post_vars'
p2289
asbag69
(g90
g71
NtRp2290
(dp2291
g74
(dp2292
g101
g102
ssg83
g2281
sg76
(lp2293
S':'
asbag69
(g90
g71
NtRp2294
(dp2295
g74
(dp2296
sg83
g2281
sg76
(lp2297
g69
(g70
g71
NtRp2298
(dp2299
g74
(dp2300
g82
I5
ssg83
g2294
sg76
(lp2301
g69
(g78
g71
NtRp2302
(dp2303
g74
(dp2304
g82
I4
ssg83
Nsg76
(lp2305
sbasbasbasbag69
(g85
g71
NtRp2306
(dp2307
g74
(dp2308
sg83
g79
sg76
(lp2309
g69
(g90
g71
NtRp2310
(dp2311
g74
(dp2312
g94
g95
ssg83
g2306
sg76
(lp2313
S'raw_args'
p2314
asbag69
(g90
g71
NtRp2315
(dp2316
g74
(dp2317
g101
g102
ssg83
g2306
sg76
(lp2318
S':'
asbag69
(g90
g71
NtRp2319
(dp2320
g74
(dp2321
sg83
g2306
sg76
(lp2322
g69
(g70
g71
NtRp2323
(dp2324
g74
(dp2325
g82
I5
ssg83
g2319
sg76
(lp2326
S'db/auth_user'
p2327
asbasbasbag69
(g85
g71
NtRp2328
(dp2329
g74
(dp2330
sg83
g79
sg76
(lp2331
g69
(g90
g71
NtRp2332
(dp2333
g74
(dp2334
g94
g95
ssg83
g2328
sg76
(lp2335
S'url'
p2336
asbag69
(g90
g71
NtRp2337
(dp2338
g74
(dp2339
g101
g102
ssg83
g2328
sg76
(lp2340
S':'
asbag69
(g90
g71
NtRp2341
(dp2342
g74
(dp2343
sg83
g2328
sg76
(lp2344
g69
(g70
g71
NtRp2345
(dp2346
g74
(dp2347
g82
I5
ssg83
g2341
sg76
(lp2348
S'/PhotoUpload/appadmin/insert/db/auth_user'
p2349
asbasbasbag69
(g85
g71
NtRp2350
(dp2351
g74
(dp2352
sg83
g79
sg76
(lp2353
g69
(g90
g71
NtRp2354
(dp2355
g74
(dp2356
g94
g95
ssg83
g2350
sg76
(lp2357
S'utcnow'
p2358
asbag69
(g90
g71
NtRp2359
(dp2360
g74
(dp2361
g101
g102
ssg83
g2350
sg76
(lp2362
S':'
asbag69
(g90
g71
NtRp2363
(dp2364
g74
(dp2365
sg83
g2350
sg76
(lp2366
g69
(g70
g71
NtRp2367
(dp2368
g74
(dp2369
g82
I5
ssg83
g2363
sg76
(lp2370
S'datetime.datetime(2012, 8, 29, 18, 15, 27, 23401)'
p2371
asbasbasbag69
(g85
g71
NtRp2372
(dp2373
g74
(dp2374
sg83
g79
sg76
(lp2375
g69
(g90
g71
NtRp2376
(dp2377
g74
(dp2378
g94
g95
ssg83
g2372
sg76
(lp2379
S'uuid'
p2380
asbag69
(g90
g71
NtRp2381
(dp2382
g74
(dp2383
g101
g102
ssg83
g2372
sg76
(lp2384
S':'
asbag69
(g90
g71
NtRp2385
(dp2386
g74
(dp2387
sg83
g2372
sg76
(lp2388
g69
(g70
g71
NtRp2389
(dp2390
g74
(dp2391
g82
I5
ssg83
g2385
sg76
(lp2392
S'PhotoUpload/127.0.0.1.2012-08-29.23-45-27.838eb8f2-9ca4-4f7e-a4f5-31007695c382'
p2393
asbasbasbag69
(g85
g71
NtRp2394
(dp2395
g74
(dp2396
sg83
g79
sg76
(lp2397
g69
(g90
g71
NtRp2398
(dp2399
g74
(dp2400
g94
g95
ssg83
g2394
sg76
(lp2401
S'vars'
p2402
asbag69
(g90
g71
NtRp2403
(dp2404
g74
(dp2405
g101
g102
ssg83
g2394
sg76
(lp2406
S':'
asbag69
(g90
g71
NtRp2407
(dp2408
g74
(dp2409
sg83
g2394
sg76
(lp2410
g69
(g70
g71
NtRp2411
(dp2412
g74
(dp2413
g82
I5
ssg83
g2407
sg76
(lp2414
g69
(g78
g71
NtRp2415
(dp2416
g74
(dp2417
g82
I4
ssg83
Nsg76
(lp2418
sbasbasbasbag69
(g85
g71
NtRp2419
(dp2420
g74
(dp2421
sg83
g79
sg76
(lp2422
g69
(g90
g71
NtRp2423
(dp2424
g74
(dp2425
g94
g95
ssg83
g2419
sg76
(lp2426
S'wsgi'
p2427
asbag69
(g90
g71
NtRp2428
(dp2429
g74
(dp2430
g101
g102
ssg83
g2419
sg76
(lp2431
S':'
asbag69
(g90
g71
NtRp2432
(dp2433
g74
(dp2434
sg83
g2419
sg76
(lp2435
g69
(g70
g71
NtRp2436
(dp2437
g74
(dp2438
g82
I5
ssg83
g2432
sg76
(lp2439
g69
(g78
g71
NtRp2440
(dp2441
g74
(dp2442
g82
I4
ssg83
Nsg76
(lp2443
g69
(g85
g71
NtRp2444
(dp2445
g74
(dp2446
sg83
g2440
sg76
(lp2447
g69
(g90
g71
NtRp2448
(dp2449
g74
(dp2450
g94
g95
ssg83
g2444
sg76
(lp2451
S'environ'
p2452
asbag69
(g90
g71
NtRp2453
(dp2454
g74
(dp2455
g101
g102
ssg83
g2444
sg76
(lp2456
S':'
asbag69
(g90
g71
NtRp2457
(dp2458
g74
(dp2459
sg83
g2444
sg76
(lp2460
g69
(g70
g71
NtRp2461
(dp2462
g74
(dp2463
g82
I4
ssg83
g2457
sg76
(lp2464
g69
(g78
g71
NtRp2465
(dp2466
g74
(dp2467
g82
I3
ssg83
Nsg76
(lp2468
g69
(g85
g71
NtRp2469
(dp2470
g74
(dp2471
sg83
g2465
sg76
(lp2472
g69
(g90
g71
NtRp2473
(dp2474
g74
(dp2475
g94
g95
ssg83
g2469
sg76
(lp2476
S'HTTP_ACCEPT'
p2477
asbag69
(g90
g71
NtRp2478
(dp2479
g74
(dp2480
g101
g102
ssg83
g2469
sg76
(lp2481
S':'
asbag69
(g90
g71
NtRp2482
(dp2483
g74
(dp2484
sg83
g2469
sg76
(lp2485
g69
(g70
g71
NtRp2486
(dp2487
g74
(dp2488
g82
I3
ssg83
g2482
sg76
(lp2489
g1041
asbasbasbag69
(g85
g71
NtRp2490
(dp2491
g74
(dp2492
sg83
g2465
sg76
(lp2493
g69
(g90
g71
NtRp2494
(dp2495
g74
(dp2496
g94
g95
ssg83
g2490
sg76
(lp2497
S'HTTP_ACCEPT_ENCODING'
p2498
asbag69
(g90
g71
NtRp2499
(dp2500
g74
(dp2501
g101
g102
ssg83
g2490
sg76
(lp2502
S':'
asbag69
(g90
g71
NtRp2503
(dp2504
g74
(dp2505
sg83
g2490
sg76
(lp2506
g69
(g70
g71
NtRp2507
(dp2508
g74
(dp2509
g82
I3
ssg83
g2503
sg76
(lp2510
g1063
asbasbasbag69
(g85
g71
NtRp2511
(dp2512
g74
(dp2513
sg83
g2465
sg76
(lp2514
g69
(g90
g71
NtRp2515
(dp2516
g74
(dp2517
g94
g95
ssg83
g2511
sg76
(lp2518
S'HTTP_ACCEPT_LANGUAGE'
p2519
asbag69
(g90
g71
NtRp2520
(dp2521
g74
(dp2522
g101
g102
ssg83
g2511
sg76
(lp2523
S':'
asbag69
(g90
g71
NtRp2524
(dp2525
g74
(dp2526
sg83
g2511
sg76
(lp2527
g69
(g70
g71
NtRp2528
(dp2529
g74
(dp2530
g82
I3
ssg83
g2524
sg76
(lp2531
g1085
asbasbasbag69
(g85
g71
NtRp2532
(dp2533
g74
(dp2534
sg83
g2465
sg76
(lp2535
g69
(g90
g71
NtRp2536
(dp2537
g74
(dp2538
g94
g95
ssg83
g2532
sg76
(lp2539
S'HTTP_CONNECTION'
p2540
asbag69
(g90
g71
NtRp2541
(dp2542
g74
(dp2543
g101
g102
ssg83
g2532
sg76
(lp2544
S':'
asbag69
(g90
g71
NtRp2545
(dp2546
g74
(dp2547
sg83
g2532
sg76
(lp2548
g69
(g70
g71
NtRp2549
(dp2550
g74
(dp2551
g82
I3
ssg83
g2545
sg76
(lp2552
g1107
asbasbasbag69
(g85
g71
NtRp2553
(dp2554
g74
(dp2555
sg83
g2465
sg76
(lp2556
g69
(g90
g71
NtRp2557
(dp2558
g74
(dp2559
g94
g95
ssg83
g2553
sg76
(lp2560
S'HTTP_COOKIE'
p2561
asbag69
(g90
g71
NtRp2562
(dp2563
g74
(dp2564
g101
g102
ssg83
g2553
sg76
(lp2565
S':'
asbag69
(g90
g71
NtRp2566
(dp2567
g74
(dp2568
sg83
g2553
sg76
(lp2569
g69
(g70
g71
NtRp2570
(dp2571
g74
(dp2572
g82
I3
ssg83
g2566
sg76
(lp2573
g1129
asbasbasbag69
(g85
g71
NtRp2574
(dp2575
g74
(dp2576
sg83
g2465
sg76
(lp2577
g69
(g90
g71
NtRp2578
(dp2579
g74
(dp2580
g94
g95
ssg83
g2574
sg76
(lp2581
S'HTTP_HOST'
p2582
asbag69
(g90
g71
NtRp2583
(dp2584
g74
(dp2585
g101
g102
ssg83
g2574
sg76
(lp2586
S':'
asbag69
(g90
g71
NtRp2587
(dp2588
g74
(dp2589
sg83
g2574
sg76
(lp2590
g69
(g70
g71
NtRp2591
(dp2592
g74
(dp2593
g82
I3
ssg83
g2587
sg76
(lp2594
g1151
asbasbasbag69
(g85
g71
NtRp2595
(dp2596
g74
(dp2597
sg83
g2465
sg76
(lp2598
g69
(g90
g71
NtRp2599
(dp2600
g74
(dp2601
g94
g95
ssg83
g2595
sg76
(lp2602
S'HTTP_REFERER'
p2603
asbag69
(g90
g71
NtRp2604
(dp2605
g74
(dp2606
g101
g102
ssg83
g2595
sg76
(lp2607
S':'
asbag69
(g90
g71
NtRp2608
(dp2609
g74
(dp2610
sg83
g2595
sg76
(lp2611
g69
(g70
g71
NtRp2612
(dp2613
g74
(dp2614
g82
I3
ssg83
g2608
sg76
(lp2615
g1173
asbasbasbag69
(g85
g71
NtRp2616
(dp2617
g74
(dp2618
sg83
g2465
sg76
(lp2619
g69
(g90
g71
NtRp2620
(dp2621
g74
(dp2622
g94
g95
ssg83
g2616
sg76
(lp2623
S'HTTP_USER_AGENT'
p2624
asbag69
(g90
g71
NtRp2625
(dp2626
g74
(dp2627
g101
g102
ssg83
g2616
sg76
(lp2628
S':'
asbag69
(g90
g71
NtRp2629
(dp2630
g74
(dp2631
sg83
g2616
sg76
(lp2632
g69
(g70
g71
NtRp2633
(dp2634
g74
(dp2635
g82
I3
ssg83
g2629
sg76
(lp2636
g1195
asbasbasbag69
(g85
g71
NtRp2637
(dp2638
g74
(dp2639
sg83
g2465
sg76
(lp2640
g69
(g90
g71
NtRp2641
(dp2642
g74
(dp2643
g94
g95
ssg83
g2637
sg76
(lp2644
S'PATH_INFO'
p2645
asbag69
(g90
g71
NtRp2646
(dp2647
g74
(dp2648
g101
g102
ssg83
g2637
sg76
(lp2649
S':'
asbag69
(g90
g71
NtRp2650
(dp2651
g74
(dp2652
sg83
g2637
sg76
(lp2653
g69
(g70
g71
NtRp2654
(dp2655
g74
(dp2656
g82
I3
ssg83
g2650
sg76
(lp2657
g1259
asbasbasbag69
(g85
g71
NtRp2658
(dp2659
g74
(dp2660
sg83
g2465
sg76
(lp2661
g69
(g90
g71
NtRp2662
(dp2663
g74
(dp2664
g94
g95
ssg83
g2658
sg76
(lp2665
S'QUERY_STRING'
p2666
asbag69
(g90
g71
NtRp2667
(dp2668
g74
(dp2669
g101
g102
ssg83
g2658
sg76
(lp2670
S':'
asbag69
(g90
g71
NtRp2671
(dp2672
g74
(dp2673
sg83
g2658
sg76
(lp2674
g69
(g70
g71
NtRp2675
(dp2676
g74
(dp2677
g82
I3
ssg83
g2671
sg76
(lp2678
S''
asbasbasbag69
(g85
g71
NtRp2679
(dp2680
g74
(dp2681
sg83
g2465
sg76
(lp2682
g69
(g90
g71
NtRp2683
(dp2684
g74
(dp2685
g94
g95
ssg83
g2679
sg76
(lp2686
S'REMOTE_ADDR'
p2687
asbag69
(g90
g71
NtRp2688
(dp2689
g74
(dp2690
g101
g102
ssg83
g2679
sg76
(lp2691
S':'
asbag69
(g90
g71
NtRp2692
(dp2693
g74
(dp2694
sg83
g2679
sg76
(lp2695
g69
(g70
g71
NtRp2696
(dp2697
g74
(dp2698
g82
I3
ssg83
g2692
sg76
(lp2699
g228
asbasbasbag69
(g85
g71
NtRp2700
(dp2701
g74
(dp2702
sg83
g2465
sg76
(lp2703
g69
(g90
g71
NtRp2704
(dp2705
g74
(dp2706
g94
g95
ssg83
g2700
sg76
(lp2707
S'REMOTE_PORT'
p2708
asbag69
(g90
g71
NtRp2709
(dp2710
g74
(dp2711
g101
g102
ssg83
g2700
sg76
(lp2712
S':'
asbag69
(g90
g71
NtRp2713
(dp2714
g74
(dp2715
sg83
g2700
sg76
(lp2716
g69
(g70
g71
NtRp2717
(dp2718
g74
(dp2719
g82
I3
ssg83
g2713
sg76
(lp2720
g1323
asbasbasbag69
(g85
g71
NtRp2721
(dp2722
g74
(dp2723
sg83
g2465
sg76
(lp2724
g69
(g90
g71
NtRp2725
(dp2726
g74
(dp2727
g94
g95
ssg83
g2721
sg76
(lp2728
S'REQUEST_METHOD'
p2729
asbag69
(g90
g71
NtRp2730
(dp2731
g74
(dp2732
g101
g102
ssg83
g2721
sg76
(lp2733
S':'
asbag69
(g90
g71
NtRp2734
(dp2735
g74
(dp2736
sg83
g2721
sg76
(lp2737
g69
(g70
g71
NtRp2738
(dp2739
g74
(dp2740
g82
I3
ssg83
g2734
sg76
(lp2741
g1345
asbasbasbag69
(g85
g71
NtRp2742
(dp2743
g74
(dp2744
sg83
g2465
sg76
(lp2745
g69
(g90
g71
NtRp2746
(dp2747
g74
(dp2748
g94
g95
ssg83
g2742
sg76
(lp2749
S'SCRIPT_NAME'
p2750
asbag69
(g90
g71
NtRp2751
(dp2752
g74
(dp2753
g101
g102
ssg83
g2742
sg76
(lp2754
S':'
asbag69
(g90
g71
NtRp2755
(dp2756
g74
(dp2757
sg83
g2742
sg76
(lp2758
g69
(g70
g71
NtRp2759
(dp2760
g74
(dp2761
g82
I3
ssg83
g2755
sg76
(lp2762
S''
asbasbasbag69
(g85
g71
NtRp2763
(dp2764
g74
(dp2765
sg83
g2465
sg76
(lp2766
g69
(g90
g71
NtRp2767
(dp2768
g74
(dp2769
g94
g95
ssg83
g2763
sg76
(lp2770
S'SERVER_NAME'
p2771
asbag69
(g90
g71
NtRp2772
(dp2773
g74
(dp2774
g101
g102
ssg83
g2763
sg76
(lp2775
S':'
asbag69
(g90
g71
NtRp2776
(dp2777
g74
(dp2778
sg83
g2763
sg76
(lp2779
g69
(g70
g71
NtRp2780
(dp2781
g74
(dp2782
g82
I3
ssg83
g2776
sg76
(lp2783
g1388
asbasbasbag69
(g85
g71
NtRp2784
(dp2785
g74
(dp2786
sg83
g2465
sg76
(lp2787
g69
(g90
g71
NtRp2788
(dp2789
g74
(dp2790
g94
g95
ssg83
g2784
sg76
(lp2791
S'SERVER_PORT'
p2792
asbag69
(g90
g71
NtRp2793
(dp2794
g74
(dp2795
g101
g102
ssg83
g2784
sg76
(lp2796
S':'
asbag69
(g90
g71
NtRp2797
(dp2798
g74
(dp2799
sg83
g2784
sg76
(lp2800
g69
(g70
g71
NtRp2801
(dp2802
g74
(dp2803
g82
I3
ssg83
g2797
sg76
(lp2804
g1410
asbasbasbag69
(g85
g71
NtRp2805
(dp2806
g74
(dp2807
sg83
g2465
sg76
(lp2808
g69
(g90
g71
NtRp2809
(dp2810
g74
(dp2811
g94
g95
ssg83
g2805
sg76
(lp2812
S'SERVER_PROTOCOL'
p2813
asbag69
(g90
g71
NtRp2814
(dp2815
g74
(dp2816
g101
g102
ssg83
g2805
sg76
(lp2817
S':'
asbag69
(g90
g71
NtRp2818
(dp2819
g74
(dp2820
sg83
g2805
sg76
(lp2821
g69
(g70
g71
NtRp2822
(dp2823
g74
(dp2824
g82
I3
ssg83
g2818
sg76
(lp2825
g1432
asbasbasbag69
(g85
g71
NtRp2826
(dp2827
g74
(dp2828
sg83
g2465
sg76
(lp2829
g69
(g90
g71
NtRp2830
(dp2831
g74
(dp2832
g94
g95
ssg83
g2826
sg76
(lp2833
S'SERVER_SOFTWARE'
p2834
asbag69
(g90
g71
NtRp2835
(dp2836
g74
(dp2837
g101
g102
ssg83
g2826
sg76
(lp2838
S':'
asbag69
(g90
g71
NtRp2839
(dp2840
g74
(dp2841
sg83
g2826
sg76
(lp2842
g69
(g70
g71
NtRp2843
(dp2844
g74
(dp2845
g82
I3
ssg83
g2839
sg76
(lp2846
g1454
asbasbasbag69
(g85
g71
NtRp2847
(dp2848
g74
(dp2849
sg83
g2465
sg76
(lp2850
g69
(g90
g71
NtRp2851
(dp2852
g74
(dp2853
g94
g95
ssg83
g2847
sg76
(lp2854
S'wsgi.errors'
p2855
asbag69
(g90
g71
NtRp2856
(dp2857
g74
(dp2858
g101
g102
ssg83
g2847
sg76
(lp2859
S':'
asbag69
(g90
g71
NtRp2860
(dp2861
g74
(dp2862
sg83
g2847
sg76
(lp2863
g69
(g70
g71
NtRp2864
(dp2865
g74
(dp2866
g82
I3
ssg83
g2860
sg76
(lp2867
S"<open file '<stderr>', mode 'w' at 0x7f1bfdeb0270>"
p2868
asbasbasbag69
(g85
g71
NtRp2869
(dp2870
g74
(dp2871
sg83
g2465
sg76
(lp2872
g69
(g90
g71
NtRp2873
(dp2874
g74
(dp2875
g94
g95
ssg83
g2869
sg76
(lp2876
S'wsgi.file_wrapper'
p2877
asbag69
(g90
g71
NtRp2878
(dp2879
g74
(dp2880
g101
g102
ssg83
g2869
sg76
(lp2881
S':'
asbag69
(g90
g71
NtRp2882
(dp2883
g74
(dp2884
sg83
g2869
sg76
(lp2885
g69
(g70
g71
NtRp2886
(dp2887
g74
(dp2888
g82
I3
ssg83
g2882
sg76
(lp2889
S'<class wsgiref.util.FileWrapper at 0x1fa7c18>'
p2890
asbasbasbag69
(g85
g71
NtRp2891
(dp2892
g74
(dp2893
sg83
g2465
sg76
(lp2894
g69
(g90
g71
NtRp2895
(dp2896
g74
(dp2897
g94
g95
ssg83
g2891
sg76
(lp2898
S'wsgi.input'
p2899
asbag69
(g90
g71
NtRp2900
(dp2901
g74
(dp2902
g101
g102
ssg83
g2891
sg76
(lp2903
S':'
asbag69
(g90
g71
NtRp2904
(dp2905
g74
(dp2906
sg83
g2891
sg76
(lp2907
g69
(g70
g71
NtRp2908
(dp2909
g74
(dp2910
g82
I3
ssg83
g2904
sg76
(lp2911
S'<cStringIO.StringO object at 0x7f1bf016b7d8>'
p2912
asbasbasbag69
(g85
g71
NtRp2913
(dp2914
g74
(dp2915
sg83
g2465
sg76
(lp2916
g69
(g90
g71
NtRp2917
(dp2918
g74
(dp2919
g94
g95
ssg83
g2913
sg76
(lp2920
S'wsgi.multiprocess'
p2921
asbag69
(g90
g71
NtRp2922
(dp2923
g74
(dp2924
g101
g102
ssg83
g2913
sg76
(lp2925
S':'
asbag69
(g90
g71
NtRp2926
(dp2927
g74
(dp2928
sg83
g2913
sg76
(lp2929
g69
(g70
g71
NtRp2930
(dp2931
g74
(dp2932
g82
I3
ssg83
g2926
sg76
(lp2933
g112
asbasbasbag69
(g85
g71
NtRp2934
(dp2935
g74
(dp2936
sg83
g2465
sg76
(lp2937
g69
(g90
g71
NtRp2938
(dp2939
g74
(dp2940
g94
g95
ssg83
g2934
sg76
(lp2941
S'wsgi.multithread'
p2942
asbag69
(g90
g71
NtRp2943
(dp2944
g74
(dp2945
g101
g102
ssg83
g2934
sg76
(lp2946
S':'
asbag69
(g90
g71
NtRp2947
(dp2948
g74
(dp2949
sg83
g2934
sg76
(lp2950
g69
(g70
g71
NtRp2951
(dp2952
g74
(dp2953
g82
I3
ssg83
g2947
sg76
(lp2954
g1694
asbasbasbag69
(g85
g71
NtRp2955
(dp2956
g74
(dp2957
sg83
g2465
sg76
(lp2958
g69
(g90
g71
NtRp2959
(dp2960
g74
(dp2961
g94
g95
ssg83
g2955
sg76
(lp2962
S'wsgi.run_once'
p2963
asbag69
(g90
g71
NtRp2964
(dp2965
g74
(dp2966
g101
g102
ssg83
g2955
sg76
(lp2967
S':'
asbag69
(g90
g71
NtRp2968
(dp2969
g74
(dp2970
sg83
g2955
sg76
(lp2971
g69
(g70
g71
NtRp2972
(dp2973
g74
(dp2974
g82
I3
ssg83
g2968
sg76
(lp2975
g112
asbasbasbag69
(g85
g71
NtRp2976
(dp2977
g74
(dp2978
sg83
g2465
sg76
(lp2979
g69
(g90
g71
NtRp2980
(dp2981
g74
(dp2982
g94
g95
ssg83
g2976
sg76
(lp2983
S'wsgi.url_scheme'
p2984
asbag69
(g90
g71
NtRp2985
(dp2986
g74
(dp2987
g101
g102
ssg83
g2976
sg76
(lp2988
S':'
asbag69
(g90
g71
NtRp2989
(dp2990
g74
(dp2991
sg83
g2976
sg76
(lp2992
g69
(g70
g71
NtRp2993
(dp2994
g74
(dp2995
g82
I3
ssg83
g2989
sg76
(lp2996
g1737
asbasbasbag69
(g85
g71
NtRp2997
(dp2998
g74
(dp2999
sg83
g2465
sg76
(lp3000
g69
(g90
g71
NtRp3001
(dp3002
g74
(dp3003
g94
g95
ssg83
g2997
sg76
(lp3004
S'wsgi.version'
p3005
asbag69
(g90
g71
NtRp3006
(dp3007
g74
(dp3008
g101
g102
ssg83
g2997
sg76
(lp3009
S':'
asbag69
(g90
g71
NtRp3010
(dp3011
g74
(dp3012
sg83
g2997
sg76
(lp3013
g69
(g70
g71
NtRp3014
(dp3015
g74
(dp3016
g82
I3
ssg83
g3010
sg76
(lp3017
S'1'
asbasbasbasbasbasbasbasbasbasbasbasbasbsS'frames'
p3018
(lp3019
(dp3020
S'file'
p3021
S'/home/sheetal/web2py/gluon/restricted.py'
p3022
sS'dump'
p3023
(dp3024
S'code'
p3025
S'"# -*- coding: utf-8 -*-\\n\\n#######################...ne_table(\'comments\',\\n    Field(\'pId\',db.pictures\\n"'
p3026
sS'layer'
p3027
S"'/home/sheetal/web2py/applications/PhotoUpload/models/db.py'"
p3028
sS'global compile2'
p3029
S'<function compile2>'
p3030
sS'ccode'
p3031
S'undefined'
p3032
ssS'lnum'
p3033
I204
sS'lines'
p3034
(dp3035
I199
S"    environment['__name__'] = '__restricted__'"
p3036
sI200
S'    try:'
p3037
sI201
S'        if type(code) == types.CodeType:'
p3038
sI202
S'            ccode = code'
p3039
sI203
S'        else:'
p3040
sI204
S'            ccode = compile2(code,layer)'
p3041
sI205
S'        exec ccode in environment'
p3042
sI206
S'    except HTTP:'
p3043
sI207
S'        raise'
p3044
sI208
S'    except RestrictedError:'
p3045
ssS'call'
p3046
S'(code="# -*- coding: utf-8 -*-\\n\\n#######################...ne_table(\'comments\',\\n    Field(\'pId\',db.pictures\\n", environment={\'A\': <class \'gluon.html.A\'>, \'B\': <class \'gluon.html.B\'>, \'BEAUTIFY\': <class \'gluon.html.BEAUTIFY\'>, \'BODY\': <class \'gluon.html.BODY\'>, \'BR\': <class \'gluon.html.BR\'>, \'BUTTON\': <class \'gluon.html.BUTTON\'>, \'CAT\': <class \'gluon.html.CAT\'>, \'CENTER\': <class \'gluon.html.CENTER\'>, \'CLEANUP\': <class \'gluon.validators.CLEANUP\'>, \'CODE\': <class \'gluon.html.CODE\'>, ...}, layer=\'/home/sheetal/web2py/applications/PhotoUpload/models/db.py\')'
p3047
sS'func'
p3048
S'restricted'
p3049
sa(dp3050
g3021
S'/home/sheetal/web2py/gluon/restricted.py'
p3051
sg3023
(dp3052
S'builtincompile'
p3053
S'<built-in function compile>'
p3054
sS'code'
p3055
S'"# -*- coding: utf-8 -*-\\n\\n#######################...ne_table(\'comments\',\\n    Field(\'pId\',db.pictures\\n"'
p3056
sS'code.rstrip'
p3057
S'<built-in method rstrip of str object>'
p3058
sS').replace'
p3059
g3032
sS'layer'
p3060
S"'/home/sheetal/web2py/applications/PhotoUpload/models/db.py'"
p3061
ssg3033
I189
sg3034
(dp3062
I192
S'    """'
p3063
sI193
S'    runs code in environment and returns the output. if an exception occurs'
p3064
sI184
S''
sI185
S'def compile2(code,layer):'
p3065
sI186
S'    """'
p3066
sI187
S"    The +'\\n' is necessary else compile fails when code ends in a comment."
p3067
sI188
S'    """'
p3068
sI189
S"    return compile(code.rstrip().replace('\\r\\n','\\n')+'\\n', layer, 'exec')"
p3069
sI190
S''
sI191
S"def restricted(code, environment=None, layer='Unknown'):"
p3070
ssg3046
S'(code="# -*- coding: utf-8 -*-\\n\\n#######################...ne_table(\'comments\',\\n    Field(\'pId\',db.pictures\\n", layer=\'/home/sheetal/web2py/applications/PhotoUpload/models/db.py\')'
p3071
sg3048
S'compile2'
p3072
sasS'pyver'
p3073
S'Python 2.7.3: /usr/bin/python'
p3074
sS'session'
p3075
g69
(g70
g71
NtRp3076
(dp3077
g74
(dp3078
sg76
(lp3079
g69
(g78
g71
NtRp3080
(dp3081
g74
(dp3082
g82
I5
ssg83
Nsg76
(lp3083
sbasbsS'etype'
p3084
S"<type 'exceptions.SyntaxError'>"
p3085
sS'date'
p3086
S'Wed Aug 29 23:45:27 2012'
p3087
sS'response'
p3088
g69
(g70
g71
NtRp3089
(dp3090
g74
(dp3091
sg76
(lp3092
g69
(g78
g71
NtRp3093
(dp3094
g74
(dp3095
g82
I5
ssg83
Nsg76
(lp3096
g69
(g85
g71
NtRp3097
(dp3098
g74
(dp3099
sg83
g3093
sg76
(lp3100
g69
(g90
g71
NtRp3101
(dp3102
g74
(dp3103
g94
g95
ssg83
g3097
sg76
(lp3104
g193
asbag69
(g90
g71
NtRp3105
(dp3106
g74
(dp3107
g101
g102
ssg83
g3097
sg76
(lp3108
S':'
asbag69
(g90
g71
NtRp3109
(dp3110
g74
(dp3111
sg83
g3097
sg76
(lp3112
g69
(g70
g71
NtRp3113
(dp3114
g74
(dp3115
g82
I5
ssg83
g3109
sg76
(lp3116
S'<cStringIO.StringO object at 0x7f1bec454500>'
p3117
asbasbasbag69
(g85
g71
NtRp3118
(dp3119
g74
(dp3120
sg83
g3093
sg76
(lp3121
g69
(g90
g71
NtRp3122
(dp3123
g74
(dp3124
g94
g95
ssg83
g3118
sg76
(lp3125
g259
asbag69
(g90
g71
NtRp3126
(dp3127
g74
(dp3128
g101
g102
ssg83
g3118
sg76
(lp3129
S':'
asbag69
(g90
g71
NtRp3130
(dp3131
g74
(dp3132
sg83
g3118
sg76
(lp3133
g69
(g70
g71
NtRp3134
(dp3135
g74
(dp3136
g82
I5
ssg83
g3130
sg76
(lp3137
g69
(g78
g71
NtRp3138
(dp3139
g74
(dp3140
g82
I4
ssg83
Nsg76
(lp3141
g69
(g85
g71
NtRp3142
(dp3143
g74
(dp3144
sg83
g3138
sg76
(lp3145
g69
(g90
g71
NtRp3146
(dp3147
g74
(dp3148
g94
g95
ssg83
g3142
sg76
(lp3149
S'session_id_photoupload'
p3150
asbag69
(g90
g71
NtRp3151
(dp3152
g74
(dp3153
g101
g102
ssg83
g3142
sg76
(lp3154
S':'
asbag69
(g90
g71
NtRp3155
(dp3156
g74
(dp3157
sg83
g3142
sg76
(lp3158
g69
(g70
g71
NtRp3159
(dp3160
g74
(dp3161
g82
I4
ssg83
g3155
sg76
(lp3162
g69
(g78
g71
NtRp3163
(dp3164
g74
(dp3165
g82
I3
ssg83
Nsg76
(lp3166
g69
(g85
g71
NtRp3167
(dp3168
g74
(dp3169
sg83
g3163
sg76
(lp3170
g69
(g90
g71
NtRp3171
(dp3172
g74
(dp3173
g94
g95
ssg83
g3167
sg76
(lp3174
g309
asbag69
(g90
g71
NtRp3175
(dp3176
g74
(dp3177
g101
g102
ssg83
g3167
sg76
(lp3178
S':'
asbag69
(g90
g71
NtRp3179
(dp3180
g74
(dp3181
sg83
g3167
sg76
(lp3182
g69
(g70
g71
NtRp3183
(dp3184
g74
(dp3185
g82
I3
ssg83
g3179
sg76
(lp3186
S''
asbasbasbag69
(g85
g71
NtRp3187
(dp3188
g74
(dp3189
sg83
g3163
sg76
(lp3190
g69
(g90
g71
NtRp3191
(dp3192
g74
(dp3193
g94
g95
ssg83
g3187
sg76
(lp3194
g330
asbag69
(g90
g71
NtRp3195
(dp3196
g74
(dp3197
g101
g102
ssg83
g3187
sg76
(lp3198
S':'
asbag69
(g90
g71
NtRp3199
(dp3200
g74
(dp3201
sg83
g3187
sg76
(lp3202
g69
(g70
g71
NtRp3203
(dp3204
g74
(dp3205
g82
I3
ssg83
g3199
sg76
(lp3206
S''
asbasbasbag69
(g85
g71
NtRp3207
(dp3208
g74
(dp3209
sg83
g3163
sg76
(lp3210
g69
(g90
g71
NtRp3211
(dp3212
g74
(dp3213
g94
g95
ssg83
g3207
sg76
(lp3214
g351
asbag69
(g90
g71
NtRp3215
(dp3216
g74
(dp3217
g101
g102
ssg83
g3207
sg76
(lp3218
S':'
asbag69
(g90
g71
NtRp3219
(dp3220
g74
(dp3221
sg83
g3207
sg76
(lp3222
g69
(g70
g71
NtRp3223
(dp3224
g74
(dp3225
g82
I3
ssg83
g3219
sg76
(lp3226
S''
asbasbasbag69
(g85
g71
NtRp3227
(dp3228
g74
(dp3229
sg83
g3163
sg76
(lp3230
g69
(g90
g71
NtRp3231
(dp3232
g74
(dp3233
g94
g95
ssg83
g3227
sg76
(lp3234
g372
asbag69
(g90
g71
NtRp3235
(dp3236
g74
(dp3237
g101
g102
ssg83
g3227
sg76
(lp3238
S':'
asbag69
(g90
g71
NtRp3239
(dp3240
g74
(dp3241
sg83
g3227
sg76
(lp3242
g69
(g70
g71
NtRp3243
(dp3244
g74
(dp3245
g82
I3
ssg83
g3239
sg76
(lp3246
S''
asbasbasbag69
(g85
g71
NtRp3247
(dp3248
g74
(dp3249
sg83
g3163
sg76
(lp3250
g69
(g90
g71
NtRp3251
(dp3252
g74
(dp3253
g94
g95
ssg83
g3247
sg76
(lp3254
g393
asbag69
(g90
g71
NtRp3255
(dp3256
g74
(dp3257
g101
g102
ssg83
g3247
sg76
(lp3258
S':'
asbag69
(g90
g71
NtRp3259
(dp3260
g74
(dp3261
sg83
g3247
sg76
(lp3262
g69
(g70
g71
NtRp3263
(dp3264
g74
(dp3265
g82
I3
ssg83
g3259
sg76
(lp3266
S''
asbasbasbag69
(g85
g71
NtRp3267
(dp3268
g74
(dp3269
sg83
g3163
sg76
(lp3270
g69
(g90
g71
NtRp3271
(dp3272
g74
(dp3273
g94
g95
ssg83
g3267
sg76
(lp3274
g414
asbag69
(g90
g71
NtRp3275
(dp3276
g74
(dp3277
g101
g102
ssg83
g3267
sg76
(lp3278
S':'
asbag69
(g90
g71
NtRp3279
(dp3280
g74
(dp3281
sg83
g3267
sg76
(lp3282
g69
(g70
g71
NtRp3283
(dp3284
g74
(dp3285
g82
I3
ssg83
g3279
sg76
(lp3286
S'/'
asbasbasbag69
(g85
g71
NtRp3287
(dp3288
g74
(dp3289
sg83
g3163
sg76
(lp3290
g69
(g90
g71
NtRp3291
(dp3292
g74
(dp3293
g94
g95
ssg83
g3287
sg76
(lp3294
g435
asbag69
(g90
g71
NtRp3295
(dp3296
g74
(dp3297
g101
g102
ssg83
g3287
sg76
(lp3298
S':'
asbag69
(g90
g71
NtRp3299
(dp3300
g74
(dp3301
sg83
g3287
sg76
(lp3302
g69
(g70
g71
NtRp3303
(dp3304
g74
(dp3305
g82
I3
ssg83
g3299
sg76
(lp3306
S''
asbasbasbag69
(g85
g71
NtRp3307
(dp3308
g74
(dp3309
sg83
g3163
sg76
(lp3310
g69
(g90
g71
NtRp3311
(dp3312
g74
(dp3313
g94
g95
ssg83
g3307
sg76
(lp3314
g456
asbag69
(g90
g71
NtRp3315
(dp3316
g74
(dp3317
g101
g102
ssg83
g3307
sg76
(lp3318
S':'
asbag69
(g90
g71
NtRp3319
(dp3320
g74
(dp3321
sg83
g3307
sg76
(lp3322
g69
(g70
g71
NtRp3323
(dp3324
g74
(dp3325
g82
I3
ssg83
g3319
sg76
(lp3326
S''
asbasbasbasbasbasbasbasbasbasbasbag69
(g85
g71
NtRp3327
(dp3328
g74
(dp3329
sg83
g3093
sg76
(lp3330
g69
(g90
g71
NtRp3331
(dp3332
g74
(dp3333
g94
g95
ssg83
g3327
sg76
(lp3334
S'delimiters'
p3335
asbag69
(g90
g71
NtRp3336
(dp3337
g74
(dp3338
g101
g102
ssg83
g3327
sg76
(lp3339
S':'
asbag69
(g90
g71
NtRp3340
(dp3341
g74
(dp3342
sg83
g3327
sg76
(lp3343
g69
(g70
g71
NtRp3344
(dp3345
g74
(dp3346
g82
I5
ssg83
g3340
sg76
(lp3347
g69
(g78
g71
NtRp3348
(dp3349
g74
(dp3350
g82
I4
ssg83
Nsg76
(lp3351
g69
(g85
g71
NtRp3352
(dp3353
g74
(dp3354
sg83
g3348
sg76
(lp3355
g69
(g90
g71
NtRp3356
(dp3357
g74
(dp3358
sg83
g3352
sg76
(lp3359
g69
(g70
g71
NtRp3360
(dp3361
g74
(dp3362
g82
I4
ssg83
g3356
sg76
(lp3363
S'{{'
p3364
asbasbasbag69
(g85
g71
NtRp3365
(dp3366
g74
(dp3367
sg83
g3348
sg76
(lp3368
g69
(g90
g71
NtRp3369
(dp3370
g74
(dp3371
sg83
g3365
sg76
(lp3372
g69
(g70
g71
NtRp3373
(dp3374
g74
(dp3375
g82
I4
ssg83
g3369
sg76
(lp3376
S'}}'
p3377
asbasbasbasbasbasbasbag69
(g85
g71
NtRp3378
(dp3379
g74
(dp3380
sg83
g3093
sg76
(lp3381
g69
(g90
g71
NtRp3382
(dp3383
g74
(dp3384
g94
g95
ssg83
g3378
sg76
(lp3385
S'files'
p3386
asbag69
(g90
g71
NtRp3387
(dp3388
g74
(dp3389
g101
g102
ssg83
g3378
sg76
(lp3390
S':'
asbag69
(g90
g71
NtRp3391
(dp3392
g74
(dp3393
sg83
g3378
sg76
(lp3394
g69
(g70
g71
NtRp3395
(dp3396
g74
(dp3397
g82
I5
ssg83
g3391
sg76
(lp3398
g69
(g78
g71
NtRp3399
(dp3400
g74
(dp3401
g82
I4
ssg83
Nsg76
(lp3402
sbasbasbasbag69
(g85
g71
NtRp3403
(dp3404
g74
(dp3405
sg83
g3093
sg76
(lp3406
g69
(g90
g71
NtRp3407
(dp3408
g74
(dp3409
g94
g95
ssg83
g3403
sg76
(lp3410
S'flash'
p3411
asbag69
(g90
g71
NtRp3412
(dp3413
g74
(dp3414
g101
g102
ssg83
g3403
sg76
(lp3415
S':'
asbag69
(g90
g71
NtRp3416
(dp3417
g74
(dp3418
sg83
g3403
sg76
(lp3419
g69
(g70
g71
NtRp3420
(dp3421
g74
(dp3422
g82
I5
ssg83
g3416
sg76
(lp3423
S''
asbasbasbag69
(g85
g71
NtRp3424
(dp3425
g74
(dp3426
sg83
g3093
sg76
(lp3427
g69
(g90
g71
NtRp3428
(dp3429
g74
(dp3430
g94
g95
ssg83
g3424
sg76
(lp3431
S'generic_patterns'
p3432
asbag69
(g90
g71
NtRp3433
(dp3434
g74
(dp3435
g101
g102
ssg83
g3424
sg76
(lp3436
S':'
asbag69
(g90
g71
NtRp3437
(dp3438
g74
(dp3439
sg83
g3424
sg76
(lp3440
g69
(g70
g71
NtRp3441
(dp3442
g74
(dp3443
g82
I5
ssg83
g3437
sg76
(lp3444
g69
(g78
g71
NtRp3445
(dp3446
g74
(dp3447
g82
I4
ssg83
Nsg76
(lp3448
sbasbasbasbag69
(g85
g71
NtRp3449
(dp3450
g74
(dp3451
sg83
g3093
sg76
(lp3452
g69
(g90
g71
NtRp3453
(dp3454
g74
(dp3455
g94
g95
ssg83
g3449
sg76
(lp3456
S'headers'
p3457
asbag69
(g90
g71
NtRp3458
(dp3459
g74
(dp3460
g101
g102
ssg83
g3449
sg76
(lp3461
S':'
asbag69
(g90
g71
NtRp3462
(dp3463
g74
(dp3464
sg83
g3449
sg76
(lp3465
g69
(g70
g71
NtRp3466
(dp3467
g74
(dp3468
g82
I5
ssg83
g3462
sg76
(lp3469
g69
(g78
g71
NtRp3470
(dp3471
g74
(dp3472
g82
I4
ssg83
Nsg76
(lp3473
g69
(g85
g71
NtRp3474
(dp3475
g74
(dp3476
sg83
g3470
sg76
(lp3477
g69
(g90
g71
NtRp3478
(dp3479
g74
(dp3480
g94
g95
ssg83
g3474
sg76
(lp3481
S'Cache-Control'
p3482
asbag69
(g90
g71
NtRp3483
(dp3484
g74
(dp3485
g101
g102
ssg83
g3474
sg76
(lp3486
S':'
asbag69
(g90
g71
NtRp3487
(dp3488
g74
(dp3489
sg83
g3474
sg76
(lp3490
g69
(g70
g71
NtRp3491
(dp3492
g74
(dp3493
g82
I4
ssg83
g3487
sg76
(lp3494
S'no-store, no-cache, must-revalidate, post-check=0, pre-check=0'
p3495
asbasbasbag69
(g85
g71
NtRp3496
(dp3497
g74
(dp3498
sg83
g3470
sg76
(lp3499
g69
(g90
g71
NtRp3500
(dp3501
g74
(dp3502
g94
g95
ssg83
g3496
sg76
(lp3503
S'Content-Type'
p3504
asbag69
(g90
g71
NtRp3505
(dp3506
g74
(dp3507
g101
g102
ssg83
g3496
sg76
(lp3508
S':'
asbag69
(g90
g71
NtRp3509
(dp3510
g74
(dp3511
sg83
g3496
sg76
(lp3512
g69
(g70
g71
NtRp3513
(dp3514
g74
(dp3515
g82
I4
ssg83
g3509
sg76
(lp3516
S'text/html; charset=utf-8'
p3517
asbasbasbag69
(g85
g71
NtRp3518
(dp3519
g74
(dp3520
sg83
g3470
sg76
(lp3521
g69
(g90
g71
NtRp3522
(dp3523
g74
(dp3524
g94
g95
ssg83
g3518
sg76
(lp3525
S'Expires'
p3526
asbag69
(g90
g71
NtRp3527
(dp3528
g74
(dp3529
g101
g102
ssg83
g3518
sg76
(lp3530
S':'
asbag69
(g90
g71
NtRp3531
(dp3532
g74
(dp3533
sg83
g3518
sg76
(lp3534
g69
(g70
g71
NtRp3535
(dp3536
g74
(dp3537
g82
I4
ssg83
g3531
sg76
(lp3538
S'Wed, 29 Aug 2012 18:15:27 GMT'
p3539
asbasbasbag69
(g85
g71
NtRp3540
(dp3541
g74
(dp3542
sg83
g3470
sg76
(lp3543
g69
(g90
g71
NtRp3544
(dp3545
g74
(dp3546
g94
g95
ssg83
g3540
sg76
(lp3547
S'Pragma'
p3548
asbag69
(g90
g71
NtRp3549
(dp3550
g74
(dp3551
g101
g102
ssg83
g3540
sg76
(lp3552
S':'
asbag69
(g90
g71
NtRp3553
(dp3554
g74
(dp3555
sg83
g3540
sg76
(lp3556
g69
(g70
g71
NtRp3557
(dp3558
g74
(dp3559
g82
I4
ssg83
g3553
sg76
(lp3560
S'no-cache'
p3561
asbasbasbag69
(g85
g71
NtRp3562
(dp3563
g74
(dp3564
sg83
g3470
sg76
(lp3565
g69
(g90
g71
NtRp3566
(dp3567
g74
(dp3568
g94
g95
ssg83
g3562
sg76
(lp3569
S'X-Powered-By'
p3570
asbag69
(g90
g71
NtRp3571
(dp3572
g74
(dp3573
g101
g102
ssg83
g3562
sg76
(lp3574
S':'
asbag69
(g90
g71
NtRp3575
(dp3576
g74
(dp3577
sg83
g3562
sg76
(lp3578
g69
(g70
g71
NtRp3579
(dp3580
g74
(dp3581
g82
I4
ssg83
g3575
sg76
(lp3582
S'web2py'
p3583
asbasbasbasbasbasbasbag69
(g85
g71
NtRp3584
(dp3585
g74
(dp3586
sg83
g3093
sg76
(lp3587
g69
(g90
g71
NtRp3588
(dp3589
g74
(dp3590
g94
g95
ssg83
g3584
sg76
(lp3591
S'menu'
p3592
asbag69
(g90
g71
NtRp3593
(dp3594
g74
(dp3595
g101
g102
ssg83
g3584
sg76
(lp3596
S':'
asbag69
(g90
g71
NtRp3597
(dp3598
g74
(dp3599
sg83
g3584
sg76
(lp3600
g69
(g70
g71
NtRp3601
(dp3602
g74
(dp3603
g82
I5
ssg83
g3597
sg76
(lp3604
g69
(g78
g71
NtRp3605
(dp3606
g74
(dp3607
g82
I4
ssg83
Nsg76
(lp3608
sbasbasbasbag69
(g85
g71
NtRp3609
(dp3610
g74
(dp3611
sg83
g3093
sg76
(lp3612
g69
(g90
g71
NtRp3613
(dp3614
g74
(dp3615
g94
g95
ssg83
g3609
sg76
(lp3616
S'meta'
p3617
asbag69
(g90
g71
NtRp3618
(dp3619
g74
(dp3620
g101
g102
ssg83
g3609
sg76
(lp3621
S':'
asbag69
(g90
g71
NtRp3622
(dp3623
g74
(dp3624
sg83
g3609
sg76
(lp3625
g69
(g70
g71
NtRp3626
(dp3627
g74
(dp3628
g82
I5
ssg83
g3622
sg76
(lp3629
g69
(g78
g71
NtRp3630
(dp3631
g74
(dp3632
g82
I4
ssg83
Nsg76
(lp3633
sbasbasbasbag69
(g85
g71
NtRp3634
(dp3635
g74
(dp3636
sg83
g3093
sg76
(lp3637
g69
(g90
g71
NtRp3638
(dp3639
g74
(dp3640
g94
g95
ssg83
g3634
sg76
(lp3641
S'postprocessing'
p3642
asbag69
(g90
g71
NtRp3643
(dp3644
g74
(dp3645
g101
g102
ssg83
g3634
sg76
(lp3646
S':'
asbag69
(g90
g71
NtRp3647
(dp3648
g74
(dp3649
sg83
g3634
sg76
(lp3650
g69
(g70
g71
NtRp3651
(dp3652
g74
(dp3653
g82
I5
ssg83
g3647
sg76
(lp3654
g69
(g78
g71
NtRp3655
(dp3656
g74
(dp3657
g82
I4
ssg83
Nsg76
(lp3658
sbasbasbasbag69
(g85
g71
NtRp3659
(dp3660
g74
(dp3661
sg83
g3093
sg76
(lp3662
g69
(g90
g71
NtRp3663
(dp3664
g74
(dp3665
g94
g95
ssg83
g3659
sg76
(lp3666
S'session_file'
p3667
asbag69
(g90
g71
NtRp3668
(dp3669
g74
(dp3670
g101
g102
ssg83
g3659
sg76
(lp3671
S':'
asbag69
(g90
g71
NtRp3672
(dp3673
g74
(dp3674
sg83
g3659
sg76
(lp3675
g69
(g70
g71
NtRp3676
(dp3677
g74
(dp3678
g82
I5
ssg83
g3672
sg76
(lp3679
S"<open file '/home/sheetal/web2py/applications/PhotoUpload/sessions/127.0.0.1-9fd386b1-b6c5-48c9-8c33-9898e4cb9ce1', mode 'rb+' at 0x7f1bec3a8a50>"
p3680
asbasbasbag69
(g85
g71
NtRp3681
(dp3682
g74
(dp3683
sg83
g3093
sg76
(lp3684
g69
(g90
g71
NtRp3685
(dp3686
g74
(dp3687
g94
g95
ssg83
g3681
sg76
(lp3688
S'session_filename'
p3689
asbag69
(g90
g71
NtRp3690
(dp3691
g74
(dp3692
g101
g102
ssg83
g3681
sg76
(lp3693
S':'
asbag69
(g90
g71
NtRp3694
(dp3695
g74
(dp3696
sg83
g3681
sg76
(lp3697
g69
(g70
g71
NtRp3698
(dp3699
g74
(dp3700
g82
I5
ssg83
g3694
sg76
(lp3701
S'/home/sheetal/web2py/applications/PhotoUpload/sessions/127.0.0.1-9fd386b1-b6c5-48c9-8c33-9898e4cb9ce1'
p3702
asbasbasbag69
(g85
g71
NtRp3703
(dp3704
g74
(dp3705
sg83
g3093
sg76
(lp3706
g69
(g90
g71
NtRp3707
(dp3708
g74
(dp3709
g94
g95
ssg83
g3703
sg76
(lp3710
S'session_id'
p3711
asbag69
(g90
g71
NtRp3712
(dp3713
g74
(dp3714
g101
g102
ssg83
g3703
sg76
(lp3715
S':'
asbag69
(g90
g71
NtRp3716
(dp3717
g74
(dp3718
sg83
g3703
sg76
(lp3719
g69
(g70
g71
NtRp3720
(dp3721
g74
(dp3722
g82
I5
ssg83
g3716
sg76
(lp3723
S'127.0.0.1-9fd386b1-b6c5-48c9-8c33-9898e4cb9ce1'
p3724
asbasbasbag69
(g85
g71
NtRp3725
(dp3726
g74
(dp3727
sg83
g3093
sg76
(lp3728
g69
(g90
g71
NtRp3729
(dp3730
g74
(dp3731
g94
g95
ssg83
g3725
sg76
(lp3732
S'session_id_name'
p3733
asbag69
(g90
g71
NtRp3734
(dp3735
g74
(dp3736
g101
g102
ssg83
g3725
sg76
(lp3737
S':'
asbag69
(g90
g71
NtRp3738
(dp3739
g74
(dp3740
sg83
g3725
sg76
(lp3741
g69
(g70
g71
NtRp3742
(dp3743
g74
(dp3744
g82
I5
ssg83
g3738
sg76
(lp3745
g3150
asbasbasbag69
(g85
g71
NtRp3746
(dp3747
g74
(dp3748
sg83
g3093
sg76
(lp3749
g69
(g90
g71
NtRp3750
(dp3751
g74
(dp3752
g94
g95
ssg83
g3746
sg76
(lp3753
S'session_locked'
p3754
asbag69
(g90
g71
NtRp3755
(dp3756
g74
(dp3757
g101
g102
ssg83
g3746
sg76
(lp3758
S':'
asbag69
(g90
g71
NtRp3759
(dp3760
g74
(dp3761
sg83
g3746
sg76
(lp3762
g69
(g70
g71
NtRp3763
(dp3764
g74
(dp3765
g82
I5
ssg83
g3759
sg76
(lp3766
g1694
asbasbasbag69
(g85
g71
NtRp3767
(dp3768
g74
(dp3769
sg83
g3093
sg76
(lp3770
g69
(g90
g71
NtRp3771
(dp3772
g74
(dp3773
g94
g95
ssg83
g3767
sg76
(lp3774
S'session_new'
p3775
asbag69
(g90
g71
NtRp3776
(dp3777
g74
(dp3778
g101
g102
ssg83
g3767
sg76
(lp3779
S':'
asbag69
(g90
g71
NtRp3780
(dp3781
g74
(dp3782
sg83
g3767
sg76
(lp3783
g69
(g70
g71
NtRp3784
(dp3785
g74
(dp3786
g82
I5
ssg83
g3780
sg76
(lp3787
g112
asbasbasbag69
(g85
g71
NtRp3788
(dp3789
g74
(dp3790
sg83
g3093
sg76
(lp3791
g69
(g90
g71
NtRp3792
(dp3793
g74
(dp3794
g94
g95
ssg83
g3788
sg76
(lp3795
S'status'
p3796
asbag69
(g90
g71
NtRp3797
(dp3798
g74
(dp3799
g101
g102
ssg83
g3788
sg76
(lp3800
S':'
asbag69
(g90
g71
NtRp3801
(dp3802
g74
(dp3803
sg83
g3788
sg76
(lp3804
g69
(g70
g71
NtRp3805
(dp3806
g74
(dp3807
g82
I5
ssg83
g3801
sg76
(lp3808
S'200'
p3809
asbasbasbag69
(g85
g71
NtRp3810
(dp3811
g74
(dp3812
sg83
g3093
sg76
(lp3813
g69
(g90
g71
NtRp3814
(dp3815
g74
(dp3816
g94
g95
ssg83
g3810
sg76
(lp3817
g2380
asbag69
(g90
g71
NtRp3818
(dp3819
g74
(dp3820
g101
g102
ssg83
g3810
sg76
(lp3821
S':'
asbag69
(g90
g71
NtRp3822
(dp3823
g74
(dp3824
sg83
g3810
sg76
(lp3825
g69
(g70
g71
NtRp3826
(dp3827
g74
(dp3828
g82
I5
ssg83
g3822
sg76
(lp3829
g2393
asbasbasbag69
(g85
g71
NtRp3830
(dp3831
g74
(dp3832
sg83
g3093
sg76
(lp3833
g69
(g90
g71
NtRp3834
(dp3835
g74
(dp3836
g94
g95
ssg83
g3830
sg76
(lp3837
S'view'
p3838
asbag69
(g90
g71
NtRp3839
(dp3840
g74
(dp3841
g101
g102
ssg83
g3830
sg76
(lp3842
S':'
asbag69
(g90
g71
NtRp3843
(dp3844
g74
(dp3845
sg83
g3830
sg76
(lp3846
g69
(g70
g71
NtRp3847
(dp3848
g74
(dp3849
g82
I5
ssg83
g3843
sg76
(lp3850
S'appadmin/insert.html'
p3851
asbasbasbasbasbsS'locals'
p3852
(dp3853
g4
S"'/home/sheetal/web2py/applications/PhotoUpload/models/db.py'"
p3854
sg6
S'"# -*- coding: utf-8 -*-\\n\\n#######################...ne_table(\'comments\',\\n    Field(\'pId\',db.pictures\\n"'
p3855
sssS'traceback'
p3856
S'Traceback (most recent call last):\n  File "/home/sheetal/web2py/gluon/restricted.py", line 204, in restricted\n    ccode = compile2(code,layer)\n  File "/home/sheetal/web2py/gluon/restricted.py", line 189, in compile2\n    return compile(code.rstrip().replace(\'\\r\\n\',\'\\n\')+\'\\n\', layer, \'exec\')\n  File "/home/sheetal/web2py/applications/PhotoUpload/models/db.py", line 88\n    Field(\'pId\',db.pictures\n                          ^\nSyntaxError: invalid syntax\n'
p3857
s.