(dp1
S'output'
p2
S'missing "pass" in view'
p3
sS'layer'
p4
S'ParserContainer'
p5
sS'code'
p6
S'response.write(\'<!DOCTYPE html>\\n<!-- paulirish.com/2008/conditional-stylesheets-vs-css-hacks-answer-neither/ -->\\n<!--[if lt IE 7]><html class="ie ie6 ie-lte9 ie-lte8 ie-lte7 no-js" lang="\', escape=False)\nresponse.write(T.accepted_language or \'en\')\nresponse.write(\'"> <![endif]-->\\n<!--[if IE 7]><html class="ie ie7 ie-lte9 ie-lte8 ie-lte7 no-js" lang="\', escape=False)\nresponse.write(T.accepted_language or \'en\')\nresponse.write(\'"> <![endif]-->\\n<!--[if IE 8]><html class="ie ie8 ie-lte9 ie-lte8 no-js" lang="\', escape=False)\nresponse.write(T.accepted_language or \'en\')\nresponse.write(\'"> <![endif]-->\\n<!--[if IE 9]><html class="ie9 ie-lte9 no-js" lang="\', escape=False)\nresponse.write(T.accepted_language or \'en\')\nresponse.write(\'"> <![endif]-->\\n<!--[if (gt IE 9)|!(IE)]><!--> <html lang="\', escape=False)\nresponse.write(T.accepted_language or \'en\')\nresponse.write(\'"> <!--<![endif]-->\\n<head>\\n    <meta charset="utf-8" />\\n    <!--[if IE]>\\n        <meta http-equiv="X-UA-Compatible" content="IE=edge\', escape=False)\nresponse.write(not request.is_local and \',chrome=1\' or \'\')\nresponse.write(\'">\\n    <![endif]-->\\n    <title>\', escape=False)\nresponse.write(response.title or request.application)\nresponse.write(\'</title>\\n    <meta name="application-name" content="\', escape=False)\nresponse.write(request.application)\nresponse.write(\'" />\\n    <meta name="viewport" content="width=device-width, initial-scale=1.0, user-scalable=yes">\\n    <link rel="shortcut icon" href="\', escape=False)\nresponse.write(URL(\'static\',\'favicon.ico\'))\nresponse.write(\'" type="image/x-icon">\\n    <link rel="apple-touch-icon" href="\', escape=False)\nresponse.write(URL(\'static\',\'favicon.png\'))\nresponse.write(\'">\\n\\n    <link rel="stylesheet" type="text/css" href="http://fonts.googleapis.com/css?family=Schoolbell:regular"/>\\n    <link rel="stylesheet" href="\', escape=False)\nresponse.write(URL(\'static\',\'css/layout.css\'))\nresponse.write(\'" />\\n    <link rel="stylesheet" type="text/css" href="http://fonts.googleapis.com/css?family=Lobster" />\\n\\n    <script type="text/javascript" src="\', escape=False)\nresponse.write(URL(\'static\',\'js/jquery.js\'))\nresponse.write(\'"></script>\\n    <!--[if lt IE 9]>\\n        <script src="http://html5shiv.googlecode.com/svn/trunk/html5.js"></script>\\n    <![endif]-->\\n    \', escape=False)\nresponse.write(\'<script type="text/javascript"><!--\\n    // These variables are used by the web2py_ajax_init function in web2py_ajax.js (which is loaded below).\\n    var w2p_ajax_confirm_message = "\', escape=False)\nresponse.write(T(\'Are you sure you want to delete this object?\'))\nresponse.write(\'";\\n    var w2p_ajax_date_format = "\', escape=False)\nresponse.write(T(\'%Y-%m-%d\'))\nresponse.write(\'";\\n    var w2p_ajax_datetime_format = "\', escape=False)\nresponse.write(T(\'%Y-%m-%d %H:%M:%S\'))\nresponse.write(\'";\\n    //--></script>\\n\', escape=False)\nresponse.files.append(URL(\'static\',\'js/web2py.js\'))\nresponse.include_meta()\nresponse.include_files()\nresponse.write(\'\\n\', escape=False)\nresponse.write(\'\\n</head>\\n<body>\\n    <center>\\n    <nav>\\n        <ul class="fancyNav">\\n            <li id="home" \', escape=False)\nif request.function==\'index\':\n    response.write(\'class="active_tab"\', escape=False)\n    pass\nresponse.write(\'><a href="\', escape=False)\nresponse.write(URL(\'index\'))\nresponse.write(\'" class="homeIcon">Home</a></li>\\n            <li id="new" \', escape=False)\nif request.function==\'new\':\n    response.write(\'class="active_tab"\', escape=False)\n    pass\nresponse.write(\'><a href="\', escape=False)\nresponse.write(URL(\'new\'))\nresponse.write(\'">New Drawing</a></li>\\n            <li id="collection" \', escape=False)\nif request.function==\'collections\':\n    response.write(\'class="active_tab"\', escape=False)\n    pass\nresponse.write(\'><a href="\', escape=False)\nresponse.write(URL(\'collections\'))\nresponse.write(\'">My Collections</a></li>\\n            \', escape=False)\nif not auth.user:\n    response.write(\'\\n            <li id="login" \', escape=False)\n    if request.function==\'user\' and request.args(0)==\'login\':\n        response.write(\'class="active_tab"\', escape=False)\n        pass\n    response.write(\'><a href="\', escape=False)\n    response.write(URL(\'user\',args=\'login\'))\n    response.write(\'">Login</a></li>\\n            <li id="register" \', escape=False)\n    if request.function==\'user\' and request.args(0)==\'register\':\n        response.write(\'class="active_tab"\', escape=False)\n        pass\n    response.write(\'><a href="\', escape=False)\n    response.write(URL(\'user\',args=\'register\'))\n    response.write(\'">Register</a></li>\\n            \', escape=False)\nelse:\n    response.write(\'\\n            <li id="logout"><a href="\', escape=False)\n    response.write(URL(\'user\',args=\'logout\'))\n    response.write(\'">Logout</a></li>\\n            <li id="profile" \', escape=False)\n    if request.function==\'user\' and request.args(0)==\'profile\':\n        response.write(\'class="active_tab"\', escape=False)\n        pass\n    response.write(\'><a href="\', escape=False)\n    response.write(URL(\'user\',args=\'profile\'))\n    response.write(\'">Profile</a></li>\\n            \', escape=False)\n    pass\nresponse.write(\'\\n            <li id="contact" \', escape=False)\nif request.function==\'contact\':\n    response.write(\'class="active_tab"\', escape=False)\n    pass\nresponse.write(\'><a href="\', escape=False)\nresponse.write(URL(\'contact\'))\nresponse.write(\'">Contact us</a></li>\\n        </ul>\\n    </nav>\\n    </center>\\n    <div id="wrapper">\\n        <aside id="message"></aside>\\n        \', escape=False)\nresponse.write(\'\\n<style>\\n#web2py_user_form form\\n{\\n    background-color: #fff;\\n    background-image: -webkit-gradient(linear, left top, left bottom, from(#fff), to(#eee));\\n    background-image: -webkit-linear-gradient(top, #fff, #eee);\\n    background-image: -moz-linear-gradient(top, #fff, #eee);\\n    background-image: -ms-linear-gradient(top, #fff, #eee);\\n    background-image: -o-linear-gradient(top, #fff, #eee);\\n    background-image: linear-gradient(top, #fff, #eee);  \\n    width: 400px;\\n    margin: -150px 0 0 -230px;\\n    padding: 30px 40px 10px 30px;\\n    position: absolute;\\n    top: 250px;\\n    left: 50%;\\n    z-index: 0;\\n    -moz-border-radius: 3px;\\n    -webkit-border-radius: 3px;\\n    border-radius: 10px;  \\n    -webkit-box-shadow:\\n          0 0 2px rgba(0, 0, 0, 0.2),\\n          0 1px 1px rgba(0, 0, 0, .2),\\n          0 3px 0 #fff,\\n          0 4px 0 rgba(0, 0, 0, .2),\\n          0 6px 0 #fff,  \\n          0 7px 0 rgba(0, 0, 0, .2);\\n    -moz-box-shadow:\\n          0 0 2px rgba(0, 0, 0, 0.2),  \\n          1px 1px   0 rgba(0,   0,   0,   .1),\\n          3px 3px   0 rgba(255, 255, 255, 1),\\n          4px 4px   0 rgba(0,   0,   0,   .1),\\n          6px 6px   0 rgba(255, 255, 255, 1),  \\n          7px 7px   0 rgba(0,   0,   0,   .1);\\n    box-shadow:\\n          0 0 2px rgba(0, 0, 0, 0.2),  \\n          0 1px 1px rgba(0, 0, 0, .2),\\n          0 3px 0 #fff,\\n          0 4px 0 rgba(0, 0, 0, .2),\\n          0 6px 0 #fff,  \\n          0 7px 0 rgba(0, 0, 0, .2);\\n}\\n\\n#web2py_user_form form:before\\n{\\n    content: \\\'\\\';\\n    position: absolute;\\n    z-index: -1;\\n    border: 1px dashed #ccc;\\n    top: 5px;\\n    bottom: 5px;\\n    left: 5px;\\n    right: 5px;\\n    -moz-box-shadow: 0 0 0 1px #fff;\\n    -webkit-box-shadow: 0 0 0 1px #fff;\\n    box-shadow: 0 0 0 1px #fff;\\n}\\n\\n/*--------------------*/\\n\\nh1\\n{\\n    text-shadow: 0 1px 0 rgba(255, 255, 255, .7), 0px 2px 0 rgba(0, 0, 0, .5);\\n    text-transform: uppercase;\\n    text-align: center;\\n    color: #666;\\n    margin: 0 0 30px 0;\\n    letter-spacing: 4px;\\n    font: normal 26px/1 Verdana, Helvetica;\\n    position: relative;\\n}\\n\\nh1:after, h1:before\\n{\\n    background-color: #777;\\n    content: "";\\n    height: 1px;\\n    position: absolute;\\n    top: 15px;\\n    width: 1\', escape=False)\nif request.args(0)==\'register\':\n    response.write(\'0\', escape=False)\nelse:\n    response.write(\'2\', escape=False)\n    pass\nresponse.write(\'0px;   \\n}\\n\\nh1:after\\n{ \\n    background-image: -webkit-gradient(linear, left top, right top, from(#777), to(#fff));\\n    background-image: -webkit-linear-gradient(left, #777, #fff);\\n    background-image: -moz-linear-gradient(left, #777, #fff);\\n    background-image: -ms-linear-gradient(left, #777, #fff);\\n    background-image: -o-linear-gradient(left, #777, #fff);\\n    background-image: linear-gradient(left, #777, #fff);      \\n    right: 0;\\n}\\n\\nh1:before\\n{\\n    background-image: -webkit-gradient(linear, right top, left top, from(#777), to(#fff));\\n    background-image: -webkit-linear-gradient(right, #777, #fff);\\n    background-image: -moz-linear-gradient(right, #777, #fff);\\n    background-image: -ms-linear-gradient(right, #777, #fff);\\n    background-image: -o-linear-gradient(right, #777, #fff);\\n    background-image: linear-gradient(right, #777, #fff);\\n    left: 0;\\n}\\n\\ninput\\n{\\n    background: #f1f1f1 url(http://www.red-team-design.com/wp-content/uploads/2011/09/login-sprite.png) no-repeat;\\n    padding: 15px 15px 15px 30px;\\n    margin: 0 0 10px 0;\\n    width: 353px; /* 353 + 2 + 45 = 400 */\\n    border: 1px solid #ccc;\\n    -moz-border-radius: 5px;\\n    -webkit-border-radius: 5px;\\n    border-radius: 5px;\\n    -moz-box-shadow: 0 1px 1px #ccc inset, 0 1px 0 #fff;\\n    -webkit-box-shadow: 0 1px 1px #ccc inset, 0 1px 0 #fff;\\n    box-shadow: 0 1px 1px #ccc inset, 0 1px 0 #fff;\\n    border: 1px solid #ccc;  \\n    -webkit-transition: .3s ease-in-out;  \\n    -moz-transition: .3s ease-in-out; \\n}\\n\\n#auth_user_email, #auth_user_first_name, #auth_user_last_name\\n{\\n    background-position: 5px -2px !important;\\n}\\n\\n#auth_user_password, #auth_user_password_two__row input\\n{\\n    background-position: 5px -52px !important;\\n}\\n\\ninput:focus\\n{\\n    background-color: #fff;\\n    border-color: #e8c291;\\n    outline: none;\\n    -moz-box-shadow: 0 0 0 1px #e8c291 inset;\\n    -webkit-box-shadow: 0 0 0 1px #e8c291 inset;\\n    box-shadow: 0 0 0 1px #e8c291 inset;\\n    border: 1px solid #fafafa !important;\\n  -webkit-box-shadow: 0px 0px 6px #007eff !important;\\n  -moz-box-shadow: 0px 0px 5px #007eff !important;\\n  box-shadow: 0px 0px 5px #007eff !important;\\n}\\n\\n#submit_record__row input\\n{       \\n    background-color: #ffb94b;\\n    background-image: -webkit-gradient(linear, left top, left bottom, from(#fddb6f), to(#ffb94b));\\n    background-image: -webkit-linear-gradient(top, #fddb6f, #ffb94b);\\n    background-image: -moz-linear-gradient(top, #fddb6f, #ffb94b);\\n    background-image: -ms-linear-gradient(top, #fddb6f, #ffb94b);\\n    background-image: -o-linear-gradient(top, #fddb6f, #ffb94b);\\n    background-image: linear-gradient(top, #fddb6f, #ffb94b);\\n    float:center;\\n    -moz-border-radius: 3px;\\n    -webkit-border-radius: 3px;\\n    border-radius: 3px;\\n    \\n    text-shadow: 0 1px 0 rgba(255,255,255,0.5);\\n    \\n     -moz-box-shadow: 0 0 1px rgba(0, 0, 0, 0.3), 0 1px 0 rgba(255, 255, 255, 0.3) inset;\\n     -webkit-box-shadow: 0 0 1px rgba(0, 0, 0, 0.3), 0 1px 0 rgba(255, 255, 255, 0.3) inset;\\n     box-shadow: 0 0 1px rgba(0, 0, 0, 0.3), 0 1px 0 rgba(255, 255, 255, 0.3) inset;    \\n    \\n    border-width: 1px;\\n    border-style: solid;\\n    border-color: #d69e31 #e3a037 #d5982d #e3a037;\\n\\n    height: 35px;\\n    padding: 0;\\n    width: 120px;\\n    cursor: pointer;\\n    font: bold 15px Arial, Helvetica;\\n    color: #8f5a0a;\\n}\\n\\n#submit_record__row input:hover,#submit_record__row input:focus\\n{       \\n    background-color: #fddb6f;\\n    background-image: -webkit-gradient(linear, left top, left bottom, from(#ffb94b), to(#fddb6f));\\n    background-image: -webkit-linear-gradient(top, #ffb94b, #fddb6f);\\n    background-image: -moz-linear-gradient(top, #ffb94b, #fddb6f);\\n    background-image: -ms-linear-gradient(top, #ffb94b, #fddb6f);\\n    background-image: -o-linear-gradient(top, #ffb94b, #fddb6f);\\n    background-image: linear-gradient(top, #ffb94b, #fddb6f);\\n}   \\n\\n#submit_record__row input:active\\n{       \\n    outline: none;\\n   \\n     -moz-box-shadow: 0 1px 4px rgba(0, 0, 0, 0.5) inset;\\n     -webkit-box-shadow: 0 1px 4px rgba(0, 0, 0, 0.5) inset;\\n     box-shadow: 0 1px 4px rgba(0, 0, 0, 0.5) inset;        \\n}\\n\\n#submit_record__row input::-moz-focus-inner\\n{\\n  border: none;\\n}\\n\\n#auth_user_remember{width:auto; float}\\n\\n\', escape=False)\nif request.args(0)==\'login\':\n    response.write(\'\\n#submit_record__row input{\\n    float:right;\\n    margin-top:-33px;\\n}\\n\\n#auth_user_remember__row div{\\n    margin-top:10px;\\n}\\n\', escape=False)\nelif request.args(0)==\'profile\':\n    response.write(\'\\n#submit_record__row input{\\n    float:right;\\n}\\n\', escape=False)\n    pass\nresponse.write(\'\\n</style>\\n\\n<div id="web2py_user_form">\\n  \', escape=False)\nresponse.write(form)\nresponse.write(\'\\n  \', escape=False)\nif request.args(0)==\'login\':\n    response.write(\'\\n  \', escape=False)\n    if not \'register\' in auth.settings.actions_disabled:\n        response.write(\'\\n  <br/>\\n  <a href="\', escape=False)\n        response.write(URL(args=\'register\'))\n        response.write(\'">\', escape=False)\n        response.write(T(\'Register\'))\n        response.write(\'</a>\\n  \', escape=False)\n        pass\n    response.write(\'\\n  \', escape=False)\n    if not \'request_reset_password\' in auth.settings.actions_disabled:\n        response.write(\'\\n  <br/>\\n  <a href="\', escape=False)\n        response.write(URL(args=\'request_reset_password\'))\n        response.write(\'">\', escape=False)\n        response.write(T(\'Lost Password\'))\n        response.write(\'</a>\\n  \', escape=False)\n        pass\n    response.write(\'\\n  \', escape=False)\n    pass\nresponse.write(\'\\n  \', escape=False)\nif request.args(0)==\'profile\':\n    response.write(\'\\n  <input id="change_password_button" type=\\\'text\\\' value=\\\'Change Password\\\' />\\n</div>\\n\\n<script language="javascript"><!--\\n    jQuery("#web2py_user_form input:visible:enabled:first").focus();\\n      //-->\\n    $("#web2py_user_form form").prepend("<h1>\', escape=False)\n    response.write(request.args(0))\n    response.write(\'</h1>");\\n    $("#web2py_user_form form #auth_user_first_name").attr("placeholder","Enter you First Name");\\n    $("#web2py_user_form form #auth_user_last_name").attr("placeholder","Enter you Last Name");\\n    $("#web2py_user_form form #auth_user_email").attr("placeholder","Enter you E-mail Id");\\n    $("#web2py_user_form form #auth_user_password").attr("placeholder","Enter you Password");\\n    $("#web2py_user_form form #auth_user_password_two__row input").attr("placeholder","Re-Enter you Password");\\n//    $("#web2py_user_form form #auth_user_remember__row div").wrap("<center/>");\\n    \', escape=False)\n    if request.args(0)==\'register\':\n        response.write(\'\\n    $("#web2py_user_form form #submit_record__row input").wrap("<center/>");\', escape=False)\n        pass\n    response.write(\'\\n    $("#auth_user_email__label").remove();\\n    $("#auth_user_password__label").remove();\\n    $("#auth_user_first_name__label").remove();\\n    $("#auth_user_last_name__label").remove();\\n    $("#auth_user_password_two__row label").remove();\\n</script>\\n\', escape=False)\n    response.write(\'\\n    </div>\\n</body>\\n</html>\\n\', escape=False)'
p7
sS'snapshot'
p8
(dp9
S'exception'
p10
(dp11
S'__module__'
p12
S"'gluon.rocket'"
p13
sS'__getslice__'
p14
S"<method-wrapper '__getslice__' of SocketTimeout object>"
p15
sS'__str__'
p16
S"<method-wrapper '__str__' of SocketTimeout object>"
p17
sS'__reduce__'
p18
S'<built-in method __reduce__ of SocketTimeout object>'
p19
sS'__dict__'
p20
S'{}'
p21
sS'__sizeof__'
p22
S'<built-in method __sizeof__ of SocketTimeout object>'
p23
sS'__weakref__'
p24
S'None'
p25
sS'__init__'
p26
S"<method-wrapper '__init__' of SocketTimeout object>"
p27
sS'__setattr__'
p28
S"<method-wrapper '__setattr__' of SocketTimeout object>"
p29
sS'__reduce_ex__'
p30
S'<built-in method __reduce_ex__ of SocketTimeout object>'
p31
sS'__new__'
p32
S'<built-in method __new__ of type object>'
p33
sS'__format__'
p34
S'<built-in method __format__ of SocketTimeout object>'
p35
sS'__class__'
p36
S"<class 'gluon.rocket.SocketTimeout'>"
p37
sS'__doc__'
p38
S"'Exception for when a socket times out between requests.'"
p39
sS'__getitem__'
p40
S"<method-wrapper '__getitem__' of SocketTimeout object>"
p41
sS'__setstate__'
p42
S'<built-in method __setstate__ of SocketTimeout object>'
p43
sS'__getattribute__'
p44
S"<method-wrapper '__getattribute__' of SocketTimeout object>"
p45
sS'args'
p46
S"('Socket timed out before request.',)"
p47
sS'__subclasshook__'
p48
S'<built-in method __subclasshook__ of type object>'
p49
sS'__unicode__'
p50
S'<built-in method __unicode__ of SocketTimeout object>'
p51
sS'__delattr__'
p52
S"<method-wrapper '__delattr__' of SocketTimeout object>"
p53
sS'__repr__'
p54
S"<method-wrapper '__repr__' of SocketTimeout object>"
p55
sS'__hash__'
p56
S"<method-wrapper '__hash__' of SocketTimeout object>"
p57
ssS'evalue'
p58
S'Socket timed out before request.'
p59
sS'frames'
p60
(lp61
(dp62
S'file'
p63
S'/media/Windows/Users/Tushar/Education/IIIT/3rd_Year/2nd Sem/BTP/Project/web2py/gluon/rocket.py'
p64
sS'dump'
p65
(dp66
S'self'
p67
S'<WSGIWorker(Thread-6, started daemon -1257067664)>'
p68
sS'conn'
p69
S'<gluon.rocket.Connection object>'
p70
sS'self.run_app'
p71
S'<bound method WSGIWorker.run_app of <WSGIWorker(Thread-6, started daemon -1257067664)>>'
p72
ssS'lnum'
p73
I1302
sS'lines'
p74
(dp75
I1297
S'            # Enter connection serve loop'
p76
sI1298
S'            while True:'
p77
sI1299
S'                if __debug__:'
p78
sI1300
S"                    self.err_log.debug('Serving a request')"
p79
sI1301
S'                try:'
p80
sI1302
S'                    self.run_app(conn)'
p81
sI1303
S'                    log_info = dict(client_ip = conn.client_addr,'
p82
sI1304
S"                                    time = datetime.now().strftime('%c'),"
p83
sI1305
S"                                    status = self.status.split(' ')[0],"
p84
sI1306
S'                                    size = self.size,'
p85
ssS'call'
p86
S'(self=<WSGIWorker(Thread-6, started daemon -1257067664)>)'
p87
sS'func'
p88
S'run'
p89
sa(dp90
g63
S'/media/Windows/Users/Tushar/Education/IIIT/3rd_Year/2nd Sem/BTP/Project/web2py/gluon/rocket.py'
p91
sg65
(dp92
S'self'
p93
S'<WSGIWorker(Thread-6, started daemon -1257067664)>'
p94
sS'self.environ'
p95
S"{'HTTP_ACCEPT': 'text/html,application/xhtml+xml,application/xml;q=0.9,*/*;q=0.8', 'HTTP_ACCEPT_CHARSET': 'ISO-8859-1,utf-8;q=0.7,*;q=0.3', 'HTTP_ACCEPT_ENCODING': 'gzip,deflate,sdch', 'HTTP_ACCEPT_LANGUAGE': 'en-US,en;q=0.8', 'HTTP_CACHE_CONTROL': 'max-age=0', 'HTTP_CONNECTION': 'keep-alive', 'HTTP_COOKIE': 'session_id_whiteboard=10.1.36.150-86d2f65c-db1a-...=10.1.36.150-2992e82f-9e06-4e04-bb65-f04d95cd7bab', 'HTTP_HOST': '10.1.36.150:8000', 'HTTP_REFERER': 'http://10.1.36.150:8000/whiteboard/default/index', 'HTTP_USER_AGENT': 'Mozilla/5.0 (X11; Linux i686) AppleWebKit/535.11...TML, like Gecko) Chrome/17.0.963.79 Safari/535.11', ...}"
p96
sS'sock_file'
p97
S'<socket._fileobject object>'
p98
sS'environ'
p99
S'undefined'
p100
sS'self.build_environ'
p101
S'<bound method WSGIWorker.build_environ of <WSGIWorker(Thread-6, started daemon -1257067664)>>'
p102
sS'conn'
p103
S'<gluon.rocket.Connection object>'
p104
ssg73
I1986
sg74
(dp105
I1984
S'        try:'
p106
sI1985
S'            # Read the headers and build our WSGI environment'
p107
sI1986
S'            self.environ = environ = self.build_environ(sock_file, conn)'
p108
sI1987
S''
sI1988
S'            # Handle 100 Continue'
p109
sI1989
S"            if environ.get('HTTP_EXPECT', '') == '100-continue':"
p110
sI1990
S"                res = environ['SERVER_PROTOCOL'] + ' 100 Continue\\r\\n\\r\\n'"
p111
sI1981
S'        else:'
p112
sI1982
S'            sock_file = conn.makefile(BUF_SIZE)'
p113
sI1983
S''
ssg86
S'(self=<WSGIWorker(Thread-6, started daemon -1257067664)>, conn=<gluon.rocket.Connection object>)'
p114
sg88
S'run_app'
p115
sa(dp116
g63
S'/media/Windows/Users/Tushar/Education/IIIT/3rd_Year/2nd Sem/BTP/Project/web2py/gluon/rocket.py'
p117
sg65
(dp118
S'sock_file'
p119
S'<socket._fileobject object>'
p120
sS'self.read_request_line'
p121
S'<bound method WSGIWorker.read_request_line of <WSGIWorker(Thread-6, started daemon -1257067664)>>'
p122
sS'self'
p123
S'<WSGIWorker(Thread-6, started daemon -1257067664)>'
p124
sS'request'
p125
g100
ssg73
I1807
sg74
(dp126
I1802
S'                                      "wsgiorg.futures": executor.futures})'
p127
sI1803
S''
sI1804
S'    def build_environ(self, sock_file, conn):'
p128
sI1805
S'        """ Build the execution environment. """'
p129
sI1806
S'        # Grab the request line'
p130
sI1807
S'        request = self.read_request_line(sock_file)'
p131
sI1808
S''
sI1809
S'        # Copy the Base Environment'
p132
sI1810
S'        environ = self.base_environ.copy()'
p133
sI1811
S''
ssg86
S'(self=<WSGIWorker(Thread-6, started daemon -1257067664)>, sock_file=<socket._fileobject object>, conn=<gluon.rocket.Connection object>)'
p134
sg88
S'build_environ'
p135
sa(dp136
g63
S'/media/Windows/Users/Tushar/Education/IIIT/3rd_Year/2nd Sem/BTP/Project/web2py/gluon/rocket.py'
p137
sg65
(dp138
S'global SocketTimeout'
p139
S"<class 'gluon.rocket.SocketTimeout'>"
p140
ssg73
I1376
sg74
(dp141
I1376
S'            raise SocketTimeout("Socket timed out before request.")'
p142
sI1377
S''
sI1378
S'        d = d.strip()'
p143
sI1379
S''
sI1380
S'        if not d:'
p144
sI1371
S''
sI1372
S'                d = sock_file.readline()'
p145
sI1373
S'                if PY3K:'
p146
sI1374
S"                    d = d.decode('ISO-8859-1')"
p147
sI1375
S'        except socket.timeout:'
p148
ssg86
S'(self=<WSGIWorker(Thread-6, started daemon -1257067664)>, sock_file=<socket._fileobject object>)'
p149
sg88
S'read_request_line'
p150
sasS'pyver'
p151
S'Python 2.6.6: /usr/bin/python'
p152
sS'etype'
p153
S"<class 'gluon.rocket.SocketTimeout'>"
p154
sS'date'
p155
S'Thu Mar 22 22:56:12 2012'
p156
sS'locals'
p157
(dp158
S'sock_file'
p159
S'<socket._fileobject object>'
p160
sS'self'
p161
S'<WSGIWorker(Thread-6, started daemon -1257067664)>'
p162
sssS'traceback'
p163
S'Traceback (most recent call last):\n  File "/media/Windows/Users/Tushar/Education/IIIT/3rd_Year/2nd Sem/BTP/Project/web2py/gluon/rocket.py", line 1302, in run\n    self.run_app(conn)\n  File "/media/Windows/Users/Tushar/Education/IIIT/3rd_Year/2nd Sem/BTP/Project/web2py/gluon/rocket.py", line 1986, in run_app\n    self.environ = environ = self.build_environ(sock_file, conn)\n  File "/media/Windows/Users/Tushar/Education/IIIT/3rd_Year/2nd Sem/BTP/Project/web2py/gluon/rocket.py", line 1807, in build_environ\n    request = self.read_request_line(sock_file)\n  File "/media/Windows/Users/Tushar/Education/IIIT/3rd_Year/2nd Sem/BTP/Project/web2py/gluon/rocket.py", line 1376, in read_request_line\n    raise SocketTimeout("Socket timed out before request.")\nSocketTimeout: Socket timed out before request.\n'
p164
s.