(dp1
S'output'
p2
S"<type 'exceptions.TypeError'> 'Storage' object is not callable"
p3
sS'layer'
p4
S'/media/Windows/Users/Tushar/Education/IIIT/3rd_Year/2nd Sem/BTP/Project/web2py/applications/whiteboard/views/default/user.html'
p5
sS'code'
p6
S'response.write(\'<!DOCTYPE html>\\n<!-- paulirish.com/2008/conditional-stylesheets-vs-css-hacks-answer-neither/ -->\\n<!--[if lt IE 7]><html class="ie ie6 ie-lte9 ie-lte8 ie-lte7 no-js" lang="\', escape=False)\nresponse.write(T.accepted_language or \'en\')\nresponse.write(\'"> <![endif]-->\\n<!--[if IE 7]><html class="ie ie7 ie-lte9 ie-lte8 ie-lte7 no-js" lang="\', escape=False)\nresponse.write(T.accepted_language or \'en\')\nresponse.write(\'"> <![endif]-->\\n<!--[if IE 8]><html class="ie ie8 ie-lte9 ie-lte8 no-js" lang="\', escape=False)\nresponse.write(T.accepted_language or \'en\')\nresponse.write(\'"> <![endif]-->\\n<!--[if IE 9]><html class="ie9 ie-lte9 no-js" lang="\', escape=False)\nresponse.write(T.accepted_language or \'en\')\nresponse.write(\'"> <![endif]-->\\n<!--[if (gt IE 9)|!(IE)]><!--> <html lang="\', escape=False)\nresponse.write(T.accepted_language or \'en\')\nresponse.write(\'"> <!--<![endif]-->\\n<head>\\n    <meta charset="utf-8" />\\n    <!--[if IE]>\\n        <meta http-equiv="X-UA-Compatible" content="IE=edge\', escape=False)\nresponse.write(not request.is_local and \',chrome=1\' or \'\')\nresponse.write(\'">\\n    <![endif]-->\\n    <title>\', escape=False)\nresponse.write(response.title or request.application)\nresponse.write(\'</title>\\n    <meta name="application-name" content="\', escape=False)\nresponse.write(request.application)\nresponse.write(\'" />\\n    <meta name="viewport" content="width=device-width, initial-scale=1.0, user-scalable=yes">\\n    <link rel="shortcut icon" href="\', escape=False)\nresponse.write(URL(\'static\',\'favicon.ico\'))\nresponse.write(\'" type="image/x-icon">\\n    <link rel="apple-touch-icon" href="\', escape=False)\nresponse.write(URL(\'static\',\'favicon.png\'))\nresponse.write(\'">\\n\\n    <link rel="stylesheet" type="text/css" href="http://fonts.googleapis.com/css?family=Schoolbell:regular"/>\\n    <link rel="stylesheet" href="\', escape=False)\nresponse.write(URL(\'static\',\'css/layout.css\'))\nresponse.write(\'" />\\n    <link rel="stylesheet" type="text/css" href="http://fonts.googleapis.com/css?family=Lobster" />\\n\\n    <script type="text/javascript" src="\', escape=False)\nresponse.write(URL(\'static\',\'js/jquery.js\'))\nresponse.write(\'"></script>\\n    <!--[if lt IE 9]>\\n        <script src="http://html5shiv.googlecode.com/svn/trunk/html5.js"></script>\\n    <![endif]-->\\n    \', escape=False)\nresponse.write(\'<script type="text/javascript"><!--\\n    // These variables are used by the web2py_ajax_init function in web2py_ajax.js (which is loaded below).\\n    var w2p_ajax_confirm_message = "\', escape=False)\nresponse.write(T(\'Are you sure you want to delete this object?\'))\nresponse.write(\'";\\n    var w2p_ajax_date_format = "\', escape=False)\nresponse.write(T(\'%Y-%m-%d\'))\nresponse.write(\'";\\n    var w2p_ajax_datetime_format = "\', escape=False)\nresponse.write(T(\'%Y-%m-%d %H:%M:%S\'))\nresponse.write(\'";\\n    //--></script>\\n\', escape=False)\nresponse.files.append(URL(\'static\',\'js/web2py.js\'))\nresponse.include_meta()\nresponse.include_files()\nresponse.write(\'\\n\', escape=False)\nresponse.write(\'\\n</head>\\n<body>\\n    <center>\\n    <nav>\\n        <ul class="fancyNav">\\n            <li id="home" \', escape=False)\nif request.function==\'index\':\n    response.write(\'class="active_tab"\', escape=False)\n    pass\nresponse.write(\'><a href="\', escape=False)\nresponse.write(URL(\'index\'))\nresponse.write(\'" class="homeIcon">Home</a></li>\\n            <li id="new" \', escape=False)\nif request.function==\'new\':\n    response.write(\'class="active_tab"\', escape=False)\n    pass\nresponse.write(\'><a href="\', escape=False)\nresponse.write(URL(\'new\'))\nresponse.write(\'">New Drawing</a></li>\\n            <li id="collection" \', escape=False)\nif request.function==\'collections\':\n    response.write(\'class="active_tab"\', escape=False)\n    pass\nresponse.write(\'><a href="\', escape=False)\nresponse.write(URL(\'collections\'))\nresponse.write(\'">My Collections</a></li>\\n            <li id="login" \', escape=False)\nif request.function==\'user\' and request.args(0)==\'login\':\n    response.write(\'class="active_tab"\', escape=False)\n    pass\nresponse.write(\'><a href="\', escape=False)\nresponse.write(URL(\'user\',args=\'login\'))\nresponse.write(\'">Login</a></li>\\n            <li id="register" \', escape=False)\nif request.function==\'user\' and request.args(0)==\'register\':\n    response.write(\'class="active_tab"\', escape=False)\n    pass\nresponse.write(\'><a href="\', escape=False)\nresponse.write(URL(\'user\',args=\'register\'))\nresponse.write(\'">Register</a></li>\\n            <li id="contact" \', escape=False)\nif request.function==\'contact\':\n    response.write(\'class="active_tab"\', escape=False)\n    pass\nresponse.write(\'><a href="\', escape=False)\nresponse.write(URL(\'contact\'))\nresponse.write(\'">Contact us</a></li>\\n        </ul>\\n    </nav>\\n    </center>\\n    <div id="wrapper">\\n        <aside id="message"></aside>\\n        \', escape=False)\nresponse.write(\'\\n<style>\\n#web2py_user_form form\\n{\\n    background-color: #fff;\\n    background-image: -webkit-gradient(linear, left top, left bottom, from(#fff), to(#eee));\\n    background-image: -webkit-linear-gradient(top, #fff, #eee);\\n    background-image: -moz-linear-gradient(top, #fff, #eee);\\n    background-image: -ms-linear-gradient(top, #fff, #eee);\\n    background-image: -o-linear-gradient(top, #fff, #eee);\\n    background-image: linear-gradient(top, #fff, #eee);  \\n    height: 240px;\\n    width: 400px;\\n    margin: -150px 0 0 -230px;\\n    padding: 30px;\\n    position: absolute;\\n    top: 250px;\\n    left: 50%;\\n    z-index: 0;\\n    -moz-border-radius: 3px;\\n    -webkit-border-radius: 3px;\\n    border-radius: 3px;  \\n    -webkit-box-shadow:\\n          0 0 2px rgba(0, 0, 0, 0.2),\\n          0 1px 1px rgba(0, 0, 0, .2),\\n          0 3px 0 #fff,\\n          0 4px 0 rgba(0, 0, 0, .2),\\n          0 6px 0 #fff,  \\n          0 7px 0 rgba(0, 0, 0, .2);\\n    -moz-box-shadow:\\n          0 0 2px rgba(0, 0, 0, 0.2),  \\n          1px 1px   0 rgba(0,   0,   0,   .1),\\n          3px 3px   0 rgba(255, 255, 255, 1),\\n          4px 4px   0 rgba(0,   0,   0,   .1),\\n          6px 6px   0 rgba(255, 255, 255, 1),  \\n          7px 7px   0 rgba(0,   0,   0,   .1);\\n    box-shadow:\\n          0 0 2px rgba(0, 0, 0, 0.2),  \\n          0 1px 1px rgba(0, 0, 0, .2),\\n          0 3px 0 #fff,\\n          0 4px 0 rgba(0, 0, 0, .2),\\n          0 6px 0 #fff,  \\n          0 7px 0 rgba(0, 0, 0, .2);\\n}\\n\\n#web2py_user_form form:before\\n{\\n    content: \\\'\\\';\\n    position: absolute;\\n    z-index: -1;\\n    border: 1px dashed #ccc;\\n    top: 5px;\\n    bottom: 5px;\\n    left: 5px;\\n    right: 5px;\\n    -moz-box-shadow: 0 0 0 1px #fff;\\n    -webkit-box-shadow: 0 0 0 1px #fff;\\n    box-shadow: 0 0 0 1px #fff;\\n}\\n\\n/*--------------------*/\\n\\nh1\\n{\\n    text-shadow: 0 1px 0 rgba(255, 255, 255, .7), 0px 2px 0 rgba(0, 0, 0, .5);\\n    text-transform: uppercase;\\n    text-align: center;\\n    color: #666;\\n    margin: 0 0 30px 0;\\n    letter-spacing: 4px;\\n    font: normal 26px/1 Verdana, Helvetica;\\n    position: relative;\\n}\\n\\nh1:after, h1:before\\n{\\n    background-color: #777;\\n    content: "";\\n    height: 1px;\\n    position: absolute;\\n    top: 15px;\\n    width: 120px;   \\n}\\n\\nh1:after\\n{ \\n    background-image: -webkit-gradient(linear, left top, right top, from(#777), to(#fff));\\n    background-image: -webkit-linear-gradient(left, #777, #fff);\\n    background-image: -moz-linear-gradient(left, #777, #fff);\\n    background-image: -ms-linear-gradient(left, #777, #fff);\\n    background-image: -o-linear-gradient(left, #777, #fff);\\n    background-image: linear-gradient(left, #777, #fff);      \\n    right: 0;\\n}\\n\\nh1:before\\n{\\n    background-image: -webkit-gradient(linear, right top, left top, from(#777), to(#fff));\\n    background-image: -webkit-linear-gradient(right, #777, #fff);\\n    background-image: -moz-linear-gradient(right, #777, #fff);\\n    background-image: -ms-linear-gradient(right, #777, #fff);\\n    background-image: -o-linear-gradient(right, #777, #fff);\\n    background-image: linear-gradient(right, #777, #fff);\\n    left: 0;\\n}\\n\\ninput\\n{\\n    background: #f1f1f1 url(http://www.red-team-design.com/wp-content/uploads/2011/09/login-sprite.png) no-repeat;\\n    padding: 15px 15px 15px 30px;\\n    margin: 0 0 10px 0;\\n    width: 353px; /* 353 + 2 + 45 = 400 */\\n    border: 1px solid #ccc;\\n    -moz-border-radius: 5px;\\n    -webkit-border-radius: 5px;\\n    border-radius: 5px;\\n    -moz-box-shadow: 0 1px 1px #ccc inset, 0 1px 0 #fff;\\n    -webkit-box-shadow: 0 1px 1px #ccc inset, 0 1px 0 #fff;\\n    box-shadow: 0 1px 1px #ccc inset, 0 1px 0 #fff;\\n    border: 1px solid #ccc;  \\n    -webkit-transition: .3s ease-in-out;  \\n    -moz-transition: .3s ease-in-out; \\n}\\n\\n#auth_user_email\\n{\\n    background-position: 5px -2px !important;\\n}\\n\\n#auth_user_password\\n{\\n    background-position: 5px -52px !important;\\n}\\n\\ninput:focus\\n{\\n    background-color: #fff;\\n    border-color: #e8c291;\\n    outline: none;\\n    -moz-box-shadow: 0 0 0 1px #e8c291 inset;\\n    -webkit-box-shadow: 0 0 0 1px #e8c291 inset;\\n    box-shadow: 0 0 0 1px #e8c291 inset;\\n    border: 1px solid #fafafa !important;\\n  -webkit-box-shadow: 0px 0px 6px #007eff !important;\\n  -moz-box-shadow: 0px 0px 5px #007eff !important;\\n  box-shadow: 0px 0px 5px #007eff !important;\\n}\\n\\n#submit_record__row input\\n{       \\n    background-color: #ffb94b;\\n    background-image: -webkit-gradient(linear, left top, left bottom, from(#fddb6f), to(#ffb94b));\\n    background-image: -webkit-linear-gradient(top, #fddb6f, #ffb94b);\\n    background-image: -moz-linear-gradient(top, #fddb6f, #ffb94b);\\n    background-image: -ms-linear-gradient(top, #fddb6f, #ffb94b);\\n    background-image: -o-linear-gradient(top, #fddb6f, #ffb94b);\\n    background-image: linear-gradient(top, #fddb6f, #ffb94b);\\n    float:center;\\n    -moz-border-radius: 3px;\\n    -webkit-border-radius: 3px;\\n    border-radius: 3px;\\n    \\n    text-shadow: 0 1px 0 rgba(255,255,255,0.5);\\n    \\n     -moz-box-shadow: 0 0 1px rgba(0, 0, 0, 0.3), 0 1px 0 rgba(255, 255, 255, 0.3) inset;\\n     -webkit-box-shadow: 0 0 1px rgba(0, 0, 0, 0.3), 0 1px 0 rgba(255, 255, 255, 0.3) inset;\\n     box-shadow: 0 0 1px rgba(0, 0, 0, 0.3), 0 1px 0 rgba(255, 255, 255, 0.3) inset;    \\n    \\n    border-width: 1px;\\n    border-style: solid;\\n    border-color: #d69e31 #e3a037 #d5982d #e3a037;\\n\\n    height: 35px;\\n    padding: 0;\\n    width: 120px;\\n    cursor: pointer;\\n    font: bold 15px Arial, Helvetica;\\n    color: #8f5a0a;\\n}\\n\\n#submit_record__row input:hover,#submit_record__row input:focus\\n{       \\n    background-color: #fddb6f;\\n    background-image: -webkit-gradient(linear, left top, left bottom, from(#ffb94b), to(#fddb6f));\\n    background-image: -webkit-linear-gradient(top, #ffb94b, #fddb6f);\\n    background-image: -moz-linear-gradient(top, #ffb94b, #fddb6f);\\n    background-image: -ms-linear-gradient(top, #ffb94b, #fddb6f);\\n    background-image: -o-linear-gradient(top, #ffb94b, #fddb6f);\\n    background-image: linear-gradient(top, #ffb94b, #fddb6f);\\n}   \\n\\n#submit_record__row input:active\\n{       \\n    outline: none;\\n   \\n     -moz-box-shadow: 0 1px 4px rgba(0, 0, 0, 0.5) inset;\\n     -webkit-box-shadow: 0 1px 4px rgba(0, 0, 0, 0.5) inset;\\n     box-shadow: 0 1px 4px rgba(0, 0, 0, 0.5) inset;        \\n}\\n\\n#submit_record__row input::-moz-focus-inner\\n{\\n  border: none;\\n}\\n\\n#auth_user_remember{width:auto; float}\\n</style>\\n\\n<div id="web2py_user_form">\\n  \', escape=False)\nresponse.write(form)\nresponse.write(\'\\n  \', escape=False)\nif request.args(0)==\'login\':\n    response.write(\'\\n  \', escape=False)\n    if not \'register\' in auth.settings.actions_disabled:\n        response.write(\'\\n  <br/>\\n  <a href="\', escape=False)\n        response.write(URL(args=\'register\'))\n        response.write(\'">\', escape=False)\n        response.write(T(\'Register\'))\n        response.write(\'</a>\\n  \', escape=False)\n        pass\n    response.write(\'\\n  \', escape=False)\n    if not \'request_reset_password\' in auth.settings.actions_disabled:\n        response.write(\'\\n  <br/>\\n  <a href="\', escape=False)\n        response.write(URL(args=\'request_reset_password\'))\n        response.write(\'">\', escape=False)\n        response.write(T(\'Lost Password\'))\n        response.write(\'</a>\\n  \', escape=False)\n        pass\n    response.write(\'\\n  \', escape=False)\n    pass\nresponse.write(\'\\n</div>\\n\\n<script language="javascript"><!--\\n    jQuery("#web2py_user_form input:visible:enabled:first").focus();\\n      //-->\\n    $("#web2py_user_form form").prepend("<h1>\', escape=False)\nresponse.write(request.vars(0))\nresponse.write(\'</h1>");\\n    $("#web2py_user_form form #auth_user_email").attr("placeholder","Enter you E-mail Id");\\n    $("#web2py_user_form form #auth_user_password").attr("placeholder","Enter you Password");\\n    $("#web2py_user_form form #auth_user_remember__row div").wrap("<center/>").hide();\\n    $("#web2py_user_form form #submit_record__row input").wrap("<center/>");\\n    $("#auth_user_email__label").remove();\\n    $("#auth_user_password__label").remove();\\n</script>\\n\', escape=False)\nresponse.write(\'\\n    </div>\\n</body>\\n</html>\\n\', escape=False)'
p7
sS'snapshot'
p8
(dp9
sS'traceback'
p10
S'Traceback (most recent call last):\n  File "/media/Windows/Users/Tushar/Education/IIIT/3rd_Year/2nd Sem/BTP/Project/web2py/gluon/restricted.py", line 205, in restricted\n    exec ccode in environment\n  File "/media/Windows/Users/Tushar/Education/IIIT/3rd_Year/2nd Sem/BTP/Project/web2py/applications/whiteboard/views/default/user.html", line 97, in <module>\n    {\nTypeError: \'Storage\' object is not callable\n'
p11
s.