(dp1
S'date'
p2
(dp3
S'type'
p4
g2
sS'sortable'
p5
I3
sS'sql'
p6
S'DATE'
p7
ssS'image'
p8
(dp9
g4
S'upload'
p10
sg5
I4
sg6
S'CHAR(512)'
p11
ssS'id'
p12
(dp13
g4
g12
sg5
I1
sg6
S'INTEGER PRIMARY KEY AUTOINCREMENT'
p14
ssS'title'
p15
(dp16
g4
S'string'
p17
sg5
I2
sg6
S'CHAR(512)'
p18
ss.