(dp1
S'title'
p2
(dp3
S'type'
p4
S'string'
p5
sS'sortable'
p6
I4
sS'sql'
p7
S'CHAR(512)'
p8
ssS'user'
p9
(dp10
g4
g5
sg6
I2
sg7
S'CHAR(512)'
p11
ssS'file'
p12
(dp13
g4
S'upload'
p14
sg6
I3
sg7
S'CHAR(512)'
p15
ssS'id'
p16
(dp17
g4
S'id'
p18
sg6
I1
sg7
S'INTEGER PRIMARY KEY AUTOINCREMENT'
p19
ss.